	ifndef	??version
?debug	macro
	endm
publicdll macro	name
	public	name
	endm
$comm	macro	name,dist,size,count
	comm	dist name:BYTE:count*size
	endm
	else
$comm	macro	name,dist,size,count
	comm	dist name[size]:BYTE:count
	endm
	endif
	?debug	V 300h
	?debug	S "kernelse.cpp"
	?debug	C E9DC9C034D0C6B65726E656C73652E637070
	?debug	C E9B26AFE4C0F2E2E5C685C4B65726E656C53652E68
	?debug	C E9300AFA4C0C2E2E5C685C71756575652E68
	?debug	C E93C79034D0A2E2E5C685C7063622E68
	?debug	C E9817B9D441A633A5C626333315C696E636C7564655C494F535452+
	?debug	C 45414D2E48
	?debug	C E9817B9D4417633A5C626333315C696E636C7564655C5F64656673+
	?debug	C 2E68
	?debug	C E9817B9D4415633A5C626333315C696E636C7564655C6D656D2E68
	?debug	C E9817B9D4417633A5C626333315C696E636C7564655C5F6E756C6C+
	?debug	C 2E68
	?debug	C E99364084D0B2E2E5C685C4C6F636B2E68
KERNELSE_TEXT	segment byte public 'CODE'
KERNELSE_TEXT	ends
	assume	cs:KERNELSE_TEXT,ds:KERNELSE_DATA
KERNELSE_DATA	segment word public 'FAR_DATA'
d@	label	byte
d@w	label	word
b@	label	byte
b@w	label	word
g	label	word
	db	0
	db	0
	?debug	C E93C79034D0A2E2E5C685C7063622E68
	?debug	C E9817B9D441A633A5C626333315C696E636C7564655C494F535452+
	?debug	C 45414D2E48
	?debug	C E91C5D084D0D2E2E5C685C6B65726E656C2E68
	?debug	C E9E28B024D0D2E2E5C685C7468726561642E68
	?debug	C E9817B9D441A633A5C626333315C696E636C7564655C494F535452+
	?debug	C 45414D2E48
	?debug	C E9DB767A4012696E636C7564655C5343484544554C452E48
KERNELSE_DATA	ends
KERNELSE_TEXT	segment byte public 'CODE'
	?debug	C E8010C6B65726E656C73652E637070DC9C034D
   ;	
   ;	KernelSem::KernelSem(int init)
   ;	
	?debug	L 16
	assume	cs:KERNELSE_TEXT
@KernelSem@0$bctr$qi	proc	far
	?debug	B
	push	bp
	mov	bp,sp
	push	ds
	mov	ax,KERNELSE_DATA
	mov	ds,ax
	?debug	C F814404B65726E656C53656D4030246263747224+
	?debug	C 7169
	?debug	C E318000400161900
	?debug	C E604696E6974040A0A0000047468697318020600+
	?debug	C 00
	?debug	B
   ;	
   ;	{
   ;	
	?debug	L 17
	mov	ax,word ptr [bp+6]
	or	ax,word ptr [bp+8]
	jne	short @1@86
	mov	ax,10
	push	ax
	call	far ptr @$bnew$qui
	pop	cx
	mov	word ptr [bp+8],dx
	mov	word ptr [bp+6],ax
	or	ax,dx
	je	short @1@226
@1@86:
	les	bx,dword ptr [bp+6]
	mov	word ptr es:[bx+2],seg @@KernelSem@0
	mov	word ptr es:[bx],offset @@KernelSem@0
   ;	
   ;		lock
   ;	
	?debug	L 18
	pushf	
 	cli	
   ;	
   ;		val = init;
   ;	
	?debug	L 19
	les	bx,dword ptr [bp+6]
	mov	ax,word ptr [bp+10]
	mov	word ptr es:[bx+8],ax
   ;	
   ;		semaphoreQueue = new queue();
   ;	
	?debug	L 20
	xor	ax,ax
	xor	dx,dx
	push	ax
	push	dx
	call	far ptr @queue@0$bctr$qv
	pop	cx
	pop	cx
	les	bx,dword ptr [bp+6]
	mov	word ptr es:[bx+6],dx
	mov	word ptr es:[bx+4],ax
   ;	
   ;		unlock
   ;	
	?debug	L 21
	popf	
@1@226:
   ;	
   ;	}
   ;	
	?debug	L 22
	mov	dx,word ptr [bp+8]
	mov	ax,word ptr [bp+6]
	jmp	short @1@254
@1@254:
	pop	ds
	pop	bp
	ret	
	?debug	C E60474686973180206000004696E6974040A0A00+
	?debug	C 00
	?debug	E
	?debug	E
@KernelSem@0$bctr$qi	endp
   ;	
   ;	int KernelSem::wait(int toBlock)
   ;	
	?debug	L 26
	assume	cs:KERNELSE_TEXT
@KernelSem@0wait$qi	proc	far
	?debug	B
	push	bp
	mov	bp,sp
	push	ds
	mov	ax,KERNELSE_DATA
	mov	ds,ax
	?debug	C F813404B65726E656C53656D4030776169742471+
	?debug	C 69
	?debug	C E607746F426C6F636B040A0A0000047468697318+
	?debug	C 02060000
	?debug	B
   ;	
   ;	{
   ;		lock
   ;	
	?debug	L 28
	pushf	
 	cli	
   ;	
   ;		if(toBlock != 0)
   ;	
	?debug	L 29
	cmp	word ptr [bp+10],0
	je	short @2@366
   ;	
   ;		{
   ;			if(--val < 0) 
   ;	
	?debug	L 31
	les	bx,dword ptr [bp+6]
	dec	word ptr es:[bx+8]
	jge	short @2@282
   ;	
   ;			{
   ;				block();
   ;	
	?debug	L 33
	push	word ptr [bp+8]
	push	word ptr [bp+6]
	call	far ptr @KernelSem@0block$qv
	pop	cx
	pop	cx
   ;	
   ;				unlock
   ;	
	?debug	L 34
	popf	
   ;	
   ;				return 1;
   ;	
	?debug	L 35
	mov	ax,1
@2@226:
	jmp	short @2@562
   ;	
   ;			}
   ;	
	?debug	L 36
	jmp	short @2@338
@2@282:
   ;	
   ;			else
   ;			{
   ;				unlock
   ;	
	?debug	L 39
	popf	
	jmp	short @2@534
@2@338:
   ;	
   ;				return 0;
   ;			}
   ;		}
   ;	
	?debug	L 42
	jmp	short @2@562
@2@366:
   ;	
   ;		else
   ;		{
   ;			if(val <= 0) 
   ;	
	?debug	L 45
	les	bx,dword ptr [bp+6]
	cmp	word ptr es:[bx+8],0
	jg	short @2@478
   ;	
   ;			{
   ;				unlock 
   ;	
	?debug	L 47
	popf	
   ;	
   ;				return -1;
   ;	
	?debug	L 48
	mov	ax,-1
	jmp	short @2@226
   ;	
   ;			}
   ;	
	?debug	L 49
	jmp	short @2@562
@2@478:
   ;	
   ;			else
   ;			{
   ;				--val;
   ;	
	?debug	L 52
	les	bx,dword ptr [bp+6]
	dec	word ptr es:[bx+8]
   ;	
   ;				unlock
   ;	
	?debug	L 53
	popf	
@2@534:
   ;	
   ;				return 0;
   ;	
	?debug	L 54
	xor	ax,ax
	jmp	short @2@226
@2@562:
   ;	
   ;			}
   ;		}
   ;	}
   ;	
	?debug	L 57
	pop	ds
	pop	bp
	ret	
	?debug	C E60474686973180206000007746F426C6F636B04+
	?debug	C 0A0A0000
	?debug	E
	?debug	E
@KernelSem@0wait$qi	endp
   ;	
   ;	void KernelSem::signal()
   ;	
	?debug	L 59
	assume	cs:KERNELSE_TEXT
@KernelSem@0signal$qv	proc	far
	?debug	B
	push	bp
	mov	bp,sp
	push	ds
	mov	ax,KERNELSE_DATA
	mov	ds,ax
	?debug	C F815404B65726E656C53656D40307369676E616C+
	?debug	C 247176
	?debug	C E604746869731802060000
	?debug	B
   ;	
   ;	{
   ;		lock
   ;	
	?debug	L 61
	pushf	
 	cli	
   ;	
   ;		if(val++ < 0)
   ;	
	?debug	L 62
	les	bx,dword ptr [bp+6]
	mov	ax,word ptr es:[bx+8]
	inc	word ptr es:[bx+8]
	or	ax,ax
	jge	short @3@142
   ;	
   ;			deblock();
   ;	
	?debug	L 63
	push	word ptr [bp+8]
	push	word ptr [bp+6]
	call	far ptr @KernelSem@0deblock$qv
	pop	cx
	pop	cx
@3@142:
   ;	
   ;		unlock
   ;	
	?debug	L 64
	popf	
   ;	
   ;	}
   ;	
	?debug	L 65
	pop	ds
	pop	bp
	ret	
	?debug	C E604746869731802060000
	?debug	E
	?debug	E
@KernelSem@0signal$qv	endp
   ;	
   ;	void KernelSem::block()
   ;	
	?debug	L 67
	assume	cs:KERNELSE_TEXT
@KernelSem@0block$qv	proc	far
	?debug	B
	push	bp
	mov	bp,sp
	push	ds
	mov	ax,KERNELSE_DATA
	mov	ds,ax
	?debug	C F814404B65726E656C53656D4030626C6F636B24+
	?debug	C 7176
	?debug	C E604746869731802060000
	?debug	B
   ;	
   ;	{
   ;		lock
   ;	
	?debug	L 69
	pushf	
 	cli	
   ;	
   ;		KERNEL::running->setState(PCB::BLOCKED);
   ;	
	?debug	L 70
	mov	ax,3
	push	ax
	mov	ax,seg @KERNEL@0running
	mov	es,ax
	push	word ptr es:@KERNEL@0running+2
	push	word ptr es:@KERNEL@0running
	call	far ptr @PCB@0setState$q5State
	add	sp,6
   ;	
   ;		semaphoreQueue->push(KERNEL::running);
   ;	
	?debug	L 71
	mov	ax,seg @KERNEL@0running
	mov	es,ax
	push	word ptr es:@KERNEL@0running+2
	push	word ptr es:@KERNEL@0running
	les	bx,dword ptr [bp+6]
	push	word ptr es:[bx+6]
	push	word ptr es:[bx+4]
	call	far ptr @queue@0push$qn3PCB
	add	sp,8
   ;	
   ;		dispatch();
   ;	
	?debug	L 72
	call	far ptr @dispatch$qv
   ;	
   ;		unlock
   ;	
	?debug	L 73
	popf	
   ;	
   ;	}
   ;	
	?debug	L 74
	pop	ds
	pop	bp
	ret	
	?debug	C E604746869731802060000
	?debug	E
	?debug	E
@KernelSem@0block$qv	endp
   ;	
   ;	void KernelSem::deblock()
   ;	
	?debug	L 76
	assume	cs:KERNELSE_TEXT
@KernelSem@0deblock$qv	proc	far
	?debug	B
	push	bp
	mov	bp,sp
	sub	sp,4
	push	ds
	mov	ax,KERNELSE_DATA
	mov	ds,ax
	?debug	C F816404B65726E656C53656D40306465626C6F63+
	?debug	C 6B247176
	?debug	C E604746869731802060000
	?debug	B
   ;	
   ;	{
   ;		lock
   ;	
	?debug	L 78
	pushf	
 	cli	
   ;	
   ;		PCB* deblockedThread = semaphoreQueue->pop();
   ;	
	?debug	L 79
	les	bx,dword ptr [bp+6]
	push	word ptr es:[bx+6]
	push	word ptr es:[bx+4]
	call	far ptr @queue@0pop$qv
	pop	cx
	pop	cx
	mov	word ptr [bp-2],dx
	mov	word ptr [bp-4],ax
   ;	
   ;		deblockedThread->setState(PCB::ACTIVE);
   ;	
	?debug	L 80
	mov	ax,1
	push	ax
	push	word ptr [bp-2]
	push	word ptr [bp-4]
	call	far ptr @PCB@0setState$q5State
	add	sp,6
   ;	
   ;		Scheduler::put(deblockedThread);
   ;	
	?debug	L 81
	push	word ptr [bp-2]
	push	word ptr [bp-4]
	call	far ptr @Scheduler@0put$qn3PCB
	pop	cx
	pop	cx
   ;	
   ;		unlock	
   ;	
	?debug	L 82
	popf	
   ;	
   ;	}
   ;	
	?debug	L 83
	pop	ds
	mov	sp,bp
	pop	bp
	ret	
	?debug	C E31A000400161B00
	?debug	C E60F6465626C6F636B65645468726561641A02FC+
	?debug	C FF0004746869731802060000
	?debug	E
	?debug	E
@KernelSem@0deblock$qv	endp
KERNELSE_TEXT	ends
KERNELSE_TEXT	segment byte public 'CODE'
@KernelSem@0	segment	virtual
@@KernelSem@0	label	byte
	dd	@KernelSem@0$bdtr$qv
	?debug	C E9
	?debug	C FA00000000
@KernelSem@0	ends
KERNELSE_TEXT	ends
KERNELSE_DATA	segment word public 'FAR_DATA'
s@	label	byte
KERNELSE_DATA	ends
KERNELSE_TEXT	segment byte public 'CODE'
KERNELSE_TEXT	ends
	?debug	C E31B0350434226002E02
	?debug	C ED00020000010E00
	?debug	C E31C0000002D1A04011B00184050434240302462+
	?debug	C 63747224716E36546872656164756C69
	?debug	C E31E0000002D0104011B000E4050434240302462+
	?debug	C 647472247176
	?debug	C E3210654687265616408002E03
	?debug	C ED000300001D0E00
	?debug	C E3220000002D0104012100114054687265616440+
	?debug	C 307374617274247176
	?debug	C E3240000002D01040121001A4054687265616440+
	?debug	C 3077616974546F436F6D706C657465247176
	?debug	C E3260000002D0104012100114054687265616440+
	?debug	C 302462647472247176
	?debug	C E3280000002D0104012100124054687265616440+
	?debug	C 30736C65657024717569
	?debug	C E32A0000002D2004012100144054687265616440+
	?debug	C 3024626374722471756C7569
	?debug	C E32C0000002D0104092102
	?debug	C E320000400162100
	?debug	C E32E055374617465020022000080FF7F26
	?debug	C E3300000002D0104011B00164050434240307365+
	?debug	C 7453746174652471355374617465
	?debug	C E3320000002D2E04011B00114050434240306765+
	?debug	C 745374617465247176
	?debug	C E3340000002D0404011B00104050434240306765+
	?debug	C 7454696D65247176
	?debug	C E3360000002D0104011B000E4050434240307374+
	?debug	C 617274247176
	?debug	C E3380000002D0104011B00174050434240307761+
	?debug	C 6974546F436F6D706C657465247176
	?debug	C E33A000400160100
	?debug	C E33B0000002D0104011B000F405043424030736C+
	?debug	C 65657024717569
	?debug	C E33D0000002D0104011B000C4050434240307275+
	?debug	C 6E247176
	?debug	C E33F0000002D0104011B00144050434240307275+
	?debug	C 6E5F77726170706572247176
	?debug	C E341000400160A00
	?debug	C E3420000002D0104011B00154050434240306372+
	?debug	C 65617465537461636B24717569
	?debug	C E319094B65726E656C53656D0A002E01
	?debug	C ED000100002B0E00
	?debug	C E3450571756575650C002E04
	?debug	C ED00040000360E00
	?debug	C E3460000002D4404014500104071756575654030+
	?debug	C 2462637472247176
	?debug	C E3480000002D0104014500134071756575654030+
	?debug	C 7075736824716E33504342
	?debug	C E34A0000002D1A040145000E4071756575654030+
	?debug	C 706F70247176
	?debug	C E34C0000002D0404014500104071756575654030+
	?debug	C 73697A6524787176
	?debug	C E34E0000002D0104014500104071756575654030+
	?debug	C 2462647472247176
	?debug	C E3500C4071756575654030456C656D08002E05
	?debug	C ED00050000400F00
	?debug	C E351000400165000
	?debug	C E3520000002D5104095000
	?debug	C E3540000002D5104095000
	?debug	C E344000400164500
	?debug	C E3560000002D010401190014404B65726E656C53+
	?debug	C 656D4030626C6F636B247176
	?debug	C E3580000002D010401190016404B65726E656C53+
	?debug	C 656D40306465626C6F636B247176
	?debug	C E35A0000002D040401190013404B65726E656C53+
	?debug	C 656D403077616974247169
	?debug	C E35C0000002D010401190015404B65726E656C53+
	?debug	C 656D40307369676E616C247176
	?debug	C E35E0000002D040401190015404B65726E656C53+
	?debug	C 656D403076616C756524787176
	?debug	C E3600000002D180401190014404B65726E656C53+
	?debug	C 656D40302462637472247169
	?debug	C E3620000002D010401190014404B65726E656C53+
	?debug	C 656D40302462647472247176
	extrn	@Scheduler@0put$qn3PCB:far
	extrn	@dispatch$qv:far
	extrn	@KERNEL@0running:dword
_g	equ	g
	extrn	@queue@0pop$qv:far
	extrn	@queue@0push$qn3PCB:far
	extrn	@queue@0$bctr$qv:far
	extrn	@PCB@0setState$q5State:far
	extrn	@KernelSem@0$bdtr$qv:far
	public	@KernelSem@0$bctr$qi
	public	@KernelSem@0signal$qv
	public	@KernelSem@0wait$qi
	public	@KernelSem@0deblock$qv
	public	@KernelSem@0block$qv
	extrn	@$bnew$qui:far
_s@	equ	s@
	?debug	C EA050D
	?debug	C E364095363686564756C657201002E06
	?debug	C ED00060000450E00
	?debug	C E3650000002D010401640016405363686564756C+
	?debug	C 6572403070757424716E33504342
	?debug	C E3670000002D1A0401640012405363686564756C+
	?debug	C 65724030676574247176
	?debug	C E36900000023010400
	?debug	C EB0C4064697370617463682471766900
	?debug	C E36A064B45524E454C01002E07
	?debug	C ED00070000480E00
	?debug	C E36B000400160100
	?debug	C E36C000400160100
	?debug	C E36D000400160100
	?debug	C E36E14404B45524E454C4030537461746963426C+
	?debug	C 6F636B01002E08
	?debug	C ED000800004E0F00
	?debug	C E36F000400166E00
	?debug	C E3700000002D6F04016E001D404B45524E454C40+
	?debug	C 537461746963426C6F636B403024626374722471+
	?debug	C 76
	?debug	C E37503696F732A002E0C
	?debug	C ED000C0000500E00
	?debug	C E37608696F5F7374617465020022000080FF7F80+
	?debug	C 8E
	?debug	C E378096F70656E5F6D6F6465020022000080FF7F+
	?debug	C 8093
	?debug	C E37A087365656B5F646972020022000080FF7F80+
	?debug	C 9B
	?debug	C E37C000400167500
	?debug	C E37D0000002D7C040175001840696F7340302462+
	?debug	C 63747224716E3973747265616D627566
	?debug	C E37F0000002D01040175000E40696F7340302462+
	?debug	C 647472247176
	?debug	C E380810000002D0604097500
	?debug	C E380830000002D06040175000E40696F73403066+
	?debug	C 6C61677324716C
	?debug	C E380850000002D06040175000E40696F73403073+
	?debug	C 65746624716C6C
	?debug	C E380870000002D06040175000D40696F73403073+
	?debug	C 65746624716C
	?debug	C E380890000002D06040175000F40696F73403075+
	?debug	C 6E7365746624716C
	?debug	C E3808B0000002D0404097500
	?debug	C E3808D0000002D0404097500
	?debug	C E3808F0000002D0204097500
	?debug	C E380910000002D0204097500
	?debug	C E380930000002D0404097500
	?debug	C E380950000002D0404097500
	?debug	C E38098076F73747265616D30002E0D
	?debug	C ED000D0200809E0E010C80
	?debug	C E380990000002D809704018098001C406F737472+
	?debug	C 65616D4030246263747224716E3973747265616D+
	?debug	C 627566
	?debug	C E3809B0000002D01040180980012406F73747265+
	?debug	C 616D40302462647472247176
	?debug	C E3809D0000002D8097040180980012406F737472+
	?debug	C 65616D40302462637472247169
	?debug	C E3809F0000002D8097040180980015406F737472+
	?debug	C 65616D403024626374722471696E7A63
	?debug	C E380A10000002D040409809800
	?debug	C E380A30000002D010409809800
	?debug	C E380A500040035809800
	?debug	C E380A60000002D80A5040180980012406F737472+
	?debug	C 65616D4030666C757368247176
	?debug	C E380A80000002D80A5040180980012406F737472+
	?debug	C 65616D40307365656B7024716C
	?debug	C E380AA0000002D80A504018098001B406F737472+
	?debug	C 65616D40307365656B7024716C387365656B5F64+
	?debug	C 6972
	?debug	C E380AC0000002D06040180980012406F73747265+
	?debug	C 616D403074656C6C70247176
	?debug	C E380AE0000002D80A50409809800
	?debug	C E380B00000002D80A5040180980016406F737472+
	?debug	C 65616D4030777269746524716E787A6369
	?debug	C E380B20000002D80A50409809800
	?debug	C E380B40000002D80A5040580980013406F737472+
	?debug	C 65616D403024626C736824717A63
	?debug	C E380B60000002D80A5040D809800
	?debug	C E380B80000002D80A5040D809800
	?debug	C E380BA0000002D80A5040D809800
	?debug	C E380BC0000002D80A5040D809800
	?debug	C E380BE0000002D80A5040D809800
	?debug	C E380C00000002D80A5040580980012406F737472+
	?debug	C 65616D403024626C736824716C
	?debug	C E380C20000002D80A5040580980013406F737472+
	?debug	C 65616D403024626C73682471756C
	?debug	C E380C40000002D80A5040D809800
	?debug	C E380C60000002D80A5040D809800
	?debug	C E380C80000002D80A5040580980012406F737472+
	?debug	C 65616D403024626C7368247167
	?debug	C E380CA0000002D80A5040D809800
	?debug	C E380CC0000002D80A5040D809800
	?debug	C E380CE0000002D80A5040580980013406F737472+
	?debug	C 65616D403024626C736824716E76
	?debug	C E380D00000002D80A504058098001C406F737472+
	?debug	C 65616D403024626C736824716E3973747265616D+
	?debug	C 627566
	?debug	C E380D20000002D80A5040D809800
	?debug	C E380D40000002D80A504058098001E406F737472+
	?debug	C 65616D403024626C736824716E716D33696F7324+
	?debug	C 6D33696F73
	?debug	C E380D60000002D04040180980014406F73747265+
	?debug	C 616D4030646F5F6F706678247176
	?debug	C E380D80000002D01040180980014406F73747265+
	?debug	C 616D4030646F5F6F736678247176
	?debug	C E380DA0000002D8097040180980012406F737472+
	?debug	C 65616D40302462637472247176
	?debug	C E380DC0000002D01040180980018406F73747265+
	?debug	C 616D40306F757473747224716E787A637431
	?debug	C E3809700040016809800
	?debug	C E380DE0000002D8097040175001440696F734030+
	?debug	C 74696524716E376F73747265616D
	?debug	C E380E00000002D809704097500
	?debug	C E380E20000002D0404097500
	?debug	C E380E40000002D0404097500
	?debug	C E380E60000002D0404097500
	?debug	C E380E80000002D0404097500
	?debug	C E380EA0000002D0404097500
	?debug	C E380EC0000002D01040175000E40696F73403063+
	?debug	C 6C656172247169
	?debug	C E380EE000400160100
	?debug	C E380EF0000002D80EE04097500
	?debug	C E380F10000002D04040D7500
	?debug	C E380F40973747265616D62756628002E0E
	?debug	C ED000E000080C10E00
	?debug	C E380F50000002D80F3040180F400144073747265+
	?debug	C 616D62756640302462637472247176
	?debug	C E380F70000002D80F3040180F400174073747265+
	?debug	C 616D6275664030246263747224716E7A6369
	?debug	C E380F90000002D01040180F40014407374726561+
	?debug	C 6D62756640302462647472247176
	?debug	C E380FB0000002D80F3040180F402184073747265+
	?debug	C 616D627566403073657462756624716E7A6369
	?debug	C E380FD0000002D80F3040980F400
	?debug	C E380FF0000002D80F3040180F400194073747265+
	?debug	C 616D627566403073657462756624716E7A636969
	?debug	C E381010000002D04040980F400
	?debug	C E381030000002D04040980F400
	?debug	C E381050000002D04040980F400
	?debug	C E381070000002D01040980F400
	?debug	C E381090000002D04040180F40017407374726561+
	?debug	C 6D6275664030736765746E24716E7A6369
	?debug	C E3810B0000002D04040180F4041A407374726561+
	?debug	C 6D6275664030646F5F736765746E24716E7A6369
	?debug	C E3810D0000002D04040180F40618407374726561+
	?debug	C 6D6275664030756E646572666C6F77247176
	?debug	C E3810F0000002D04040980F400
	?debug	C E381110000002D04040180F40818407374726561+
	?debug	C 6D6275664030706261636B6661696C247169
	?debug	C E381130000002D04040980F400
	?debug	C E381150000002D04040980F400
	?debug	C E381170000002D04040180F40018407374726561+
	?debug	C 6D6275664030737075746E24716E787A6369
	?debug	C E381190000002D04040180F40A1B407374726561+
	?debug	C 6D6275664030646F5F737075746E24716E787A63+
	?debug	C 69
	?debug	C E3811B0000002D04040180F40C17407374726561+
	?debug	C 6D62756640306F766572666C6F77247169
	?debug	C E3811D0000002D04040980F400
	?debug	C E3811F0000002D06040180F40E20407374726561+
	?debug	C 6D62756640307365656B6F666624716C38736565+
	?debug	C 6B5F64697269
	?debug	C E381210000002D06040180F41017407374726561+
	?debug	C 6D62756640307365656B706F7324716C69
	?debug	C E381230000002D04040180F41213407374726561+
	?debug	C 6D627566403073796E63247176
	?debug	C E381250000002D01040180F40012407374726561+
	?debug	C 6D6275664030646270247176
	?debug	C E38127000400160200
	?debug	C E381280000002D8127040980F400
	?debug	C E3812A0000002D8127040980F400
	?debug	C E3812C0000002D04040980F400
	?debug	C E3812E0000002D8127040980F400
	?debug	C E381300000002D8127040980F400
	?debug	C E381320000002D8127040980F400
	?debug	C E381340000002D8127040980F400
	?debug	C E381360000002D8127040980F400
	?debug	C E381380000002D8127040980F400
	?debug	C E3813A0000002D01040180F40017407374726561+
	?debug	C 6D62756640307365747024716E7A637431
	?debug	C E3813C0000002D01040180F40019407374726561+
	?debug	C 6D62756640307365746724716E7A6374317431
	?debug	C E3813E0000002D01040980F400
	?debug	C E381400000002D01040980F400
	?debug	C E381420000002D01040180F40018407374726561+
	?debug	C 6D62756640307365746224716E7A63743169
	?debug	C E381440000002D01040980F400
	?debug	C E381460000002D04040980F400
	?debug	C E381480000002D04040980F400
	?debug	C E3814A0000002D04040180F41419407374726561+
	?debug	C 6D6275664030646F616C6C6F63617465247176
	?debug	C E3814C0000002D04040180F40018407374726561+
	?debug	C 6D6275664030646F5F736E65787463247176
	?debug	C E3814E0000002D80F3040180F4001E4073747265+
	?debug	C 616D6275664030246263747224716D3973747265+
	?debug	C 616D627566
	?debug	C E381500000002D01040580F4001E407374726561+
	?debug	C 6D6275664030246261736724716D397374726561+
	?debug	C 6D627566
	?debug	C E380F30004001680F400
	?debug	C E381520000002D80F304097500
	?debug	C E381540000002D06040175001140696F73403062+
	?debug	C 6974616C6C6F63247176
	?debug	C E381560000002D04040175000F40696F73403078+
	?debug	C 616C6C6F63247176
	?debug	C E38158000400350600
	?debug	C E381590000002D8158040175000E40696F734030+
	?debug	C 69776F7264247169
	?debug	C E3815B0004003580EE00
	?debug	C E3815C0000002D815B040175000E40696F734030+
	?debug	C 70776F7264247169
	?debug	C E3815E0000002D01040175001840696F73403073+
	?debug	C 796E635F776974685F737464696F247176
	?debug	C E381600000002D04040175000D40696F73403073+
	?debug	C 6B6970247169
	?debug	C E381620000002D7C040175000E40696F73403024+
	?debug	C 62637472247176
	?debug	C E381640000002D01040175001740696F73403069+
	?debug	C 6E697424716E3973747265616D627566
	?debug	C E381660000002D01040175001140696F73403073+
	?debug	C 65747374617465247169
	?debug	C E3816900000023010400
	?debug	C E3816800040016816900
	?debug	C E3816A000400160100
	?debug	C E3816B0000002D01040175001140696F73403075+
	?debug	C 73657273697A65247169
	?debug	C E3816D0000002D7C040175001240696F73403024+
	?debug	C 6263747224716D33696F73
	?debug	C E3816F0000002D01040575001240696F73403024+
	?debug	C 6261736724716D33696F73
	?debug	C E374076973747265616D32002E0B
	?debug	C ED000B020080FB0E010C80
	?debug	C E38171000400167400
	?debug	C E381720000002D8171040174001C406973747265+
	?debug	C 616D4030246263747224716E3973747265616D62+
	?debug	C 7566
	?debug	C E381740000002D01040174001240697374726561+
	?debug	C 6D40302462647472247176
	?debug	C E381760000002D81710401740026406973747265+
	?debug	C 616D4030246263747224716E3973747265616D62+
	?debug	C 7566696E376F73747265616D
	?debug	C E381780000002D81710401740016406973747265+
	?debug	C 616D403024626374722471696E7A6369
	?debug	C E3817A0000002D8171040174001C406973747265+
	?debug	C 616D40302462637472247169696E376F73747265+
	?debug	C 616D
	?debug	C E3817C0000002D04040174001140697374726561+
	?debug	C 6D403069706678247169
	?debug	C E3817E0000002D0404097400
	?debug	C E381800000002D0404097400
	?debug	C E381820000002D0104097400
	?debug	C E38184000400357400
	?debug	C E381850000002D81840401740012406973747265+
	?debug	C 616D40307365656B6724716C
	?debug	C E381870000002D8184040174001B406973747265+
	?debug	C 616D40307365656B6724716C387365656B5F6469+
	?debug	C 72
	?debug	C E381890000002D06040174001240697374726561+
	?debug	C 6D403074656C6C67247176
	?debug	C E3818B0000002D0404097400
	?debug	C E3818D0000002D81840401740015406973747265+
	?debug	C 616D403067657424716E7A63697A63
	?debug	C E3818F0000002D818404097400
	?debug	C E381910000002D81840401740014406973747265+
	?debug	C 616D40307265616424716E7A6369
	?debug	C E381930000002D818404097400
	?debug	C E381950000002D81840401740019406973747265+
	?debug	C 616D40306765746C696E6524716E7A63697A63
	?debug	C E381970000002D818404097400
	?debug	C E381990000002D8184040174001C406973747265+
	?debug	C 616D403067657424716D3973747265616D627566+
	?debug	C 7A63
	?debug	C E3819B0000002D81840401740012406973747265+
	?debug	C 616D403067657424716D7563
	?debug	C E3819D0000002D81840401740012406973747265+
	?debug	C 616D403067657424716D7A63
	?debug	C E3819F0000002D04040174001040697374726561+
	?debug	C 6D4030676574247176
	?debug	C E381A10000002D0404097400
	?debug	C E381A30000002D0404097400
	?debug	C E381A50000002D81840401740015406973747265+
	?debug	C 616D40307075746261636B24717A63
	?debug	C E381A70000002D81840401740014406973747265+
	?debug	C 616D403069676E6F726524716969
	?debug	C E381A90000002D8184040D7400
	?debug	C E381AB0000002D8184040574001E406973747265+
	?debug	C 616D4030246272736824716E716D33696F73246D+
	?debug	C 33696F73
	?debug	C E381AD0000002D81840405740014406973747265+
	?debug	C 616D4030246272736824716E7A63
	?debug	C E381AF0000002D8184040D7400
	?debug	C E381B10000002D81840405740014406973747265+
	?debug	C 616D4030246272736824716D7563
	?debug	C E381B30000002D81840405740014406973747265+
	?debug	C 616D4030246272736824716D7A63
	?debug	C E381B50000002D81840405740013406973747265+
	?debug	C 616D4030246272736824716D73
	?debug	C E381B70000002D81840405740013406973747265+
	?debug	C 616D4030246272736824716D69
	?debug	C E381B90000002D81840405740013406973747265+
	?debug	C 616D4030246272736824716D6C
	?debug	C E381BB0000002D81840405740014406973747265+
	?debug	C 616D4030246272736824716D7573
	?debug	C E381BD0000002D81840405740014406973747265+
	?debug	C 616D4030246272736824716D7569
	?debug	C E381BF0000002D81840405740014406973747265+
	?debug	C 616D4030246272736824716D756C
	?debug	C E381C10000002D81840405740013406973747265+
	?debug	C 616D4030246272736824716D66
	?debug	C E381C30000002D81840405740013406973747265+
	?debug	C 616D4030246272736824716D64
	?debug	C E381C50000002D81840405740013406973747265+
	?debug	C 616D4030246272736824716D67
	?debug	C E381C70000002D8184040574001C406973747265+
	?debug	C 616D4030246272736824716E3973747265616D62+
	?debug	C 7566
	?debug	C E381C90000002D81710401740012406973747265+
	?debug	C 616D40302462637472247176
	?debug	C E381CB0000002D01040174001540697374726561+
	?debug	C 6D40306561747768697465247176
	?debug	C E381CD0000002D02040174001340697374726561+
	?debug	C 6D4030646F5F676574247176
	?debug	C E37308696F73747265616D38002E0A
	?debug	C ED000A0200812C0E020B000D00
	?debug	C E381CF000400167300
	?debug	C E381D00000002D81CF040173001D40696F737472+
	?debug	C 65616D4030246263747224716E3973747265616D+
	?debug	C 627566
	?debug	C E381D20000002D01040173001340696F73747265+
	?debug	C 616D40302462647472247176
	?debug	C E381D40000002D81CF040173001340696F737472+
	?debug	C 65616D40302462637472247176
	?debug	C E37213696F73747265616D5F7769746861737369+
	?debug	C 676E38002E09
	?debug	C ED0009020081300E010A00
	?debug	C E381D6000400167200
	?debug	C E381D70000002D81D6040172001E40696F737472+
	?debug	C 65616D5F7769746861737369676E403024626374+
	?debug	C 72247176
	?debug	C E381D90000002D01040172001E40696F73747265+
	?debug	C 616D5F7769746861737369676E40302462647472+
	?debug	C 247176
	?debug	C E381DB000400357200
	?debug	C E381DC0000002D81DB040572002240696F737472+
	?debug	C 65616D5F7769746861737369676E403024626173+
	?debug	C 6724716D33696F73
	?debug	C E381DE0000002D81DB040572002840696F737472+
	?debug	C 65616D5F7769746861737369676E403024626173+
	?debug	C 6724716E3973747265616D627566
	?debug	C E381E0126F73747265616D5F7769746861737369+
	?debug	C 676E30002E0F
	?debug	C ED000F020081350E010D00
	?debug	C E381E10004001681E000
	?debug	C E381E20000002D81E1040181E0001D406F737472+
	?debug	C 65616D5F7769746861737369676E403024626374+
	?debug	C 72247176
	?debug	C E381E40000002D01040181E0001D406F73747265+
	?debug	C 616D5F7769746861737369676E40302462647472+
	?debug	C 247176
	?debug	C E381E60004003581E000
	?debug	C E381E70000002D81E6040581E00025406F737472+
	?debug	C 65616D5F7769746861737369676E403024626173+
	?debug	C 6724716D376F73747265616D
	?debug	C E381E90000002D81E6040581E00027406F737472+
	?debug	C 65616D5F7769746861737369676E403024626173+
	?debug	C 6724716E3973747265616D627566
	?debug	C E381EB126973747265616D5F7769746861737369+
	?debug	C 676E32002E10
	?debug	C ED00100200813A0E010B00
	?debug	C E381EC0004001681EB00
	?debug	C E381ED0000002D81EC040181EB001D4069737472+
	?debug	C 65616D5F7769746861737369676E403024626374+
	?debug	C 72247176
	?debug	C E381EF0000002D01040181EB001D406973747265+
	?debug	C 616D5F7769746861737369676E40302462647472+
	?debug	C 247176
	?debug	C E381F10004003581EB00
	?debug	C E381F20000002D81F1040581EB00254069737472+
	?debug	C 65616D5F7769746861737369676E403024626173+
	?debug	C 6724716D376973747265616D
	?debug	C E381F40000002D81F1040581EB00274069737472+
	?debug	C 65616D5F7769746861737369676E403024626173+
	?debug	C 6724716E3973747265616D627566
	?debug	C E381F60000002380EE0400
	?debug	C EB0A4024626E65772471756981F600
	?debug	C E60167040000020000000249440406000454696D+
	?debug	C 650A060009537461636B53697A650C0600145269+
	?debug	C 6F73747265616D5F7769746861737369676E81DB+
	?debug	C 06001450696F73747265616D5F77697468617373+
	?debug	C 69676E81D6060013526F73747265616D5F776974+
	?debug	C 6861737369676E81E6060013506F73747265616D+
	?debug	C 5F7769746861737369676E81E106001352697374+
	?debug	C 7265616D5F7769746861737369676E81F1060013+
	?debug	C 506973747265616D5F7769746861737369676E81+
	?debug	C EC06000950696F73747265616D81CF060008526F+
	?debug	C 73747265616D80A5060008506F73747265616D80+
	?debug	C 97060008526973747265616D8184060008506973+
	?debug	C 747265616D817106000A5073747265616D627566+
	?debug	C 80F306000450696F737C06000973747265616D6F+
	?debug	C 66660606000973747265616D706F730606000673+
	?debug	C 697A655F740A060009707472646966665F740606+
	?debug	C 00095363686564756C65726407000554696D6572+
	?debug	C 0107000449646C650107000C536C656570696E67+
	?debug	C 4C697374010700035043421B0700064B45524E45+
	?debug	C 4C6A07000757616974696E670107000654687265+
	?debug	C 61642107000E696F735F757365725F756E696F6E+
	?debug	C 01070013696F73747265616D5F77697468617373+
	?debug	C 69676E720700126F73747265616D5F7769746861+
	?debug	C 737369676E81E00700126973747265616D5F7769+
	?debug	C 746861737369676E81EB070008696F7374726561+
	?debug	C 6D730700076F73747265616D8098070007697374+
	?debug	C 7265616D7407000973747265616D62756680F407+
	?debug	C 0003696F73750700094B65726E656C53656D1907+
	?debug	C 00057175657565450700
	?debug	C E24A18405043424030246263747224716E365468+
	?debug	C 72656164756C691C4D0E40504342403024626474+
	?debug	C 722471761E400400000000086D79546872656164+
	?debug	C 20700553746174652E4816405043424030736574+
	?debug	C 5374617465247135537461746530481140504342+
	?debug	C 4030676574537461746524717632481040504342+
	?debug	C 403067657454696D6524717634480E4050434240+
	?debug	C 3073746172742471763648174050434240307761+
	?debug	C 6974546F436F6D706C65746524717638000C7374+
	?debug	C 61636B5365676D656E740A000B737461636B4F66+
	?debug	C 667365740A000B62617365506F696E7465720A00+
	?debug	C 0C7772617065724F66667365740A000D77726170+
	?debug	C 65725365676D656E740A000B74696D65546F536C+
	?debug	C 6565700A000B77616974696E674C6973743A480F+
	?debug	C 405043424030736C656570247175693B480C4050+
	?debug	C 4342403072756E2471763D481440504342403072+
	?debug	C 756E5F777261707065722471763F000249440460+
	?debug	C 0D4050434240304E4558545F4944040005737461+
	?debug	C 636B4100066D7954696D65040009737461636B53+
	?debug	C 697A650C000573746174652E4815405043424030+
	?debug	C 637265617465537461636B2471756942C0260000+
	?debug	C 00
	?debug	C E248114054687265616440307374617274247176+
	?debug	C 22481A40546872656164403077616974546F436F+
	?debug	C 6D706C657465247176244D114054687265616440+
	?debug	C 3024626474722471762648124054687265616440+
	?debug	C 30736C65657024717569284A1440546872656164+
	?debug	C 403024626374722471756C75692A4C0F40546872+
	?debug	C 656164403072756E2471762C400400000000056D+
	?debug	C 795043421AC008000000
	?debug	C E400094050434240304E45570000000C40504342+
	?debug	C 40304143544956450100000D4050434240305255+
	?debug	C 4E4E494E470200000D405043424030424C4F434B+
	?debug	C 45440300800F405043424030434F4D504C455445+
	?debug	C 440400
	?debug	C E24004000000000E73656D6170686F7265517565+
	?debug	C 7565444814404B65726E656C53656D4030626C6F+
	?debug	C 636B247176564816404B65726E656C53656D4030+
	?debug	C 6465626C6F636B24717658000376616C04481340+
	?debug	C 4B65726E656C53656D4030776169742471695A48+
	?debug	C 15404B65726E656C53656D40307369676E616C24+
	?debug	C 71765C4815404B65726E656C53656D403076616C+
	?debug	C 7565247871765E4A14404B65726E656C53656D40+
	?debug	C 302462637472247169604D14404B65726E656C53+
	?debug	C 656D4030246264747224717662C00A000000
	?debug	C E24A104071756575654030246263747224717646+
	?debug	C 481340717565756540307075736824716E335043+
	?debug	C 4248480E4071756575654030706F702471764A48+
	?debug	C 10407175657565403073697A65247871764C4D10+
	?debug	C 407175657565403024626474722471764E700445+
	?debug	C 6C656D5040040000000004686561645100046C61+
	?debug	C 737451C00C000000
	?debug	C E200037063621A00046E657874514A1940717565+
	?debug	C 756540456C656D4030246263747224716E335043+
	?debug	C 42524A1540717565756540456C656D4030246263+
	?debug	C 747224717654C008000000
	?debug	C E24816405363686564756C657240307075742471+
	?debug	C 6E33504342654812405363686564756C65724030+
	?debug	C 67657424717667C001000000
	?debug	C E26010404B45524E454C403072756E6E696E671A+
	?debug	C 6011404B45524E454C4030736C656570696E676B+
	?debug	C 600D404B45524E454C403069646C656C600E404B+
	?debug	C 45524E454C403074696D65726D700B5374617469+
	?debug	C 63426C6F636B6EC001000000
	?debug	C E24A1D404B45524E454C40537461746963426C6F+
	?debug	C 636B4030246263747224717670C001000000
	?debug	C E27008696F5F73746174657670096F70656E5F6D+
	?debug	C 6F64657870087365656B5F6469727A600F40696F+
	?debug	C 734030626173656669656C6406601140696F7340+
	?debug	C 3061646A7573746669656C6406601040696F7340+
	?debug	C 30666C6F61746669656C64064A1840696F734030+
	?debug	C 246263747224716E3973747265616D6275667D4D+
	?debug	C 0E40696F73403024626474722471767F480E4069+
	?debug	C 6F734030666C6167732471768081480E40696F73+
	?debug	C 4030666C61677324716C8083480E40696F734030+
	?debug	C 7365746624716C6C8085480D40696F7340307365+
	?debug	C 746624716C8087480F40696F734030756E736574+
	?debug	C 6624716C8089480E40696F734030776964746824+
	?debug	C 7176808B480E40696F7340307769647468247169+
	?debug	C 808D480D40696F73403066696C6C247176808F48+
	?debug	C 0E40696F73403066696C6C24717A638091481240+
	?debug	C 696F734030707265636973696F6E247169809348+
	?debug	C 1240696F734030707265636973696F6E24717680+
	?debug	C 95481440696F73403074696524716E376F737472+
	?debug	C 65616D80DE480C40696F73403074696524717680+
	?debug	C E0481040696F7340307264737461746524717680+
	?debug	C E2480C40696F734030656F6624717680E4480D40+
	?debug	C 696F7340306661696C24717680E6480C40696F73+
	?debug	C 403062616424717680E8480D40696F734030676F+
	?debug	C 6F6424717680EA480E40696F734030636C656172+
	?debug	C 24716980EC4B0D40696F734030246F6E76247176+
	?debug	C 80EF480E40696F73403024626E6F7424717680F1+
	?debug	C 480E40696F734030726462756624717681524811+
	?debug	C 40696F734030626974616C6C6F63247176815448+
	?debug	C 0F40696F73403078616C6C6F632471768156480E+
	?debug	C 40696F73403069776F72642471698159480E4069+
	?debug	C 6F73403070776F7264247169815C481840696F73+
	?debug	C 403073796E635F776974685F737464696F247176+
	?debug	C 815E480D40696F734030736B6970247169816040+
	?debug	C 040000000002627080F30005785F746965809700+
	?debug	C 057374617465040008697370656369616C040008+
	?debug	C 6F7370656369616C040007785F666C6167730600+
	?debug	C 0B785F707265636973696F6E040007785F776964+
	?debug	C 7468040006785F66696C6C04000C697366785F73+
	?debug	C 70656369616C04000C6F7366785F737065636961+
	?debug	C 6C04000664656C62756604000E61737369676E5F+
	?debug	C 70726976617465044A0E40696F73403024626374+
	?debug	C 722471768162481740696F734030696E69742471+
	?debug	C 6E3973747265616D6275668164481140696F7340+
	?debug	C 3073657473746174652471698166601040696F73+
	?debug	C 4030737464696F666C7573688168600D40696F73+
	?debug	C 40306E65787462697406600F40696F7340307573+
	?debug	C 6572636F756E7404000975736572776F72647381+
	?debug	C 6A00066E776F72647304481140696F7340307573+
	?debug	C 657273697A65247169816B4A1240696F73403024+
	?debug	C 6263747224716D33696F73816D481240696F7340+
	?debug	C 30246261736724716D33696F73816FC02A000000
	?debug	C E4000D40696F734030676F6F646269740000000C+
	?debug	C 40696F734030656F666269740100000D40696F73+
	?debug	C 40306661696C6269740200000C40696F73403062+
	?debug	C 61646269740400800E40696F7340306861726466+
	?debug	C 61696C8000
	?debug	C E4000840696F734030696E0100000940696F7340+
	?debug	C 306F75740200000940696F734030617465040000+
	?debug	C 0940696F7340306170700800000B40696F734030+
	?debug	C 7472756E631000000E40696F7340306E6F637265+
	?debug	C 6174652000000F40696F7340306E6F7265706C61+
	?debug	C 63654000800C40696F73403062696E6172798000
	?debug	C E4000940696F7340306265670000000940696F73+
	?debug	C 40306375720100800940696F734030656E640200
	?debug	C E24A1C406F73747265616D403024626374722471+
	?debug	C 6E3973747265616D62756680994D12406F737472+
	?debug	C 65616D40302462647472247176809B4A12406F73+
	?debug	C 747265616D40302462637472247169809D4A1540+
	?debug	C 6F73747265616D403024626374722471696E7A63+
	?debug	C 809F4811406F73747265616D40306F7066782471+
	?debug	C 7680A14811406F73747265616D40306F73667824+
	?debug	C 717680A34812406F73747265616D4030666C7573+
	?debug	C 6824717680A64812406F73747265616D40307365+
	?debug	C 656B7024716C80A8481B406F73747265616D4030+
	?debug	C 7365656B7024716C387365656B5F64697280AA48+
	?debug	C 12406F73747265616D403074656C6C7024717680+
	?debug	C AC4811406F73747265616D403070757424717A63+
	?debug	C 80AE4816406F73747265616D4030777269746524+
	?debug	C 716E787A636980B04816406F73747265616D4030+
	?debug	C 777269746524716E7875636980B24813406F7374+
	?debug	C 7265616D403024626C736824717A6380B4481340+
	?debug	C 6F73747265616D403024626C73682471756380B6+
	?debug	C 4812406F73747265616D403024626C7368247173+
	?debug	C 80B84813406F73747265616D403024626C736824+
	?debug	C 71757380BA4812406F73747265616D403024626C+
	?debug	C 736824716980BC4813406F73747265616D403024+
	?debug	C 626C73682471756980BE4812406F73747265616D+
	?debug	C 403024626C736824716C80C04813406F73747265+
	?debug	C 616D403024626C73682471756C80C24812406F73+
	?debug	C 747265616D403024626C736824716680C4481240+
	?debug	C 6F73747265616D403024626C736824716480C648+
	?debug	C 12406F73747265616D403024626C736824716780+
	?debug	C C84815406F73747265616D403024626C73682471+
	?debug	C 6E787A6380CA4815406F73747265616D40302462+
	?debug	C 6C736824716E78756380CC4813406F7374726561+
	?debug	C 6D403024626C736824716E7680CE481C406F7374+
	?debug	C 7265616D403024626C736824716E397374726561+
	?debug	C 6D62756680D04826406F73747265616D40302462+
	?debug	C 6C736824716E716D376F73747265616D246D376F+
	?debug	C 73747265616D80D2481E406F73747265616D4030+
	?debug	C 24626C736824716E716D33696F73246D33696F73+
	?debug	C 80D44814406F73747265616D4030646F5F6F7066+
	?debug	C 7824717680D64814406F73747265616D4030646F+
	?debug	C 5F6F73667824717680D84A12406F73747265616D+
	?debug	C 4030246263747224717680DA4818406F73747265+
	?debug	C 616D40306F757473747224716E787A63743180DC+
	?debug	C C030000000
	?debug	C E24A144073747265616D62756640302462637472+
	?debug	C 24717680F54A174073747265616D627566403024+
	?debug	C 6263747224716E7A636980F74D14407374726561+
	?debug	C 6D6275664030246264747224717680F94C184073+
	?debug	C 747265616D627566403073657462756624716E7A+
	?debug	C 636980FB48184073747265616D62756640307365+
	?debug	C 7462756624716E75636980FD4819407374726561+
	?debug	C 6D627566403073657462756624716E7A63696980+
	?debug	C FF48144073747265616D62756640307367657463+
	?debug	C 247176810148154073747265616D627566403073+
	?debug	C 6E65787463247176810348154073747265616D62+
	?debug	C 756640307362756D706324717681054815407374+
	?debug	C 7265616D627566403073746F7373632471768107+
	?debug	C 48174073747265616D6275664030736765746E24+
	?debug	C 716E7A636981094C1A4073747265616D62756640+
	?debug	C 30646F5F736765746E24716E7A6369810B4C1840+
	?debug	C 73747265616D6275664030756E646572666C6F77+
	?debug	C 247176810D48194073747265616D627566403073+
	?debug	C 7075746261636B6324717A63810F4C1840737472+
	?debug	C 65616D6275664030706261636B6661696C247169+
	?debug	C 811148174073747265616D6275664030696E5F61+
	?debug	C 7661696C247176811348144073747265616D6275+
	?debug	C 6640307370757463247169811548184073747265+
	?debug	C 616D6275664030737075746E24716E787A636981+
	?debug	C 174C1B4073747265616D6275664030646F5F7370+
	?debug	C 75746E24716E787A636981194C17407374726561+
	?debug	C 6D62756640306F766572666C6F77247169811B48+
	?debug	C 1A4073747265616D62756640306F75745F776169+
	?debug	C 74696E67247176811D4C204073747265616D6275+
	?debug	C 6640307365656B6F666624716C387365656B5F64+
	?debug	C 697269811F4C174073747265616D627566403073+
	?debug	C 65656B706F7324716C6981214C13407374726561+
	?debug	C 6D627566403073796E6324717681234812407374+
	?debug	C 7265616D62756640306462702471768125481340+
	?debug	C 73747265616D6275664030626173652471768128+
	?debug	C 48134073747265616D6275664030656275662471+
	?debug	C 76812A48134073747265616D6275664030626C65+
	?debug	C 6E247176812C48144073747265616D6275664030+
	?debug	C 7062617365247176812E48134073747265616D62+
	?debug	C 7566403070707472247176813048144073747265+
	?debug	C 616D627566403065707074722471768132481440+
	?debug	C 73747265616D6275664030656261636B24717681+
	?debug	C 3448134073747265616D62756640306770747224+
	?debug	C 7176813648144073747265616D62756640306567+
	?debug	C 707472247176813848174073747265616D627566+
	?debug	C 40307365747024716E7A637431813A4819407374+
	?debug	C 7265616D62756640307365746724716E7A637431+
	?debug	C 7431813C48144073747265616D62756640307062+
	?debug	C 756D70247169813E48144073747265616D627566+
	?debug	C 40306762756D7024716981404818407374726561+
	?debug	C 6D62756640307365746224716E7A637431698142+
	?debug	C 48194073747265616D6275664030756E62756666+
	?debug	C 65726564247169814448194073747265616D6275+
	?debug	C 664030756E627566666572656424717681464817+
	?debug	C 4073747265616D6275664030616C6C6F63617465+
	?debug	C 24717681484C194073747265616D627566403064+
	?debug	C 6F616C6C6F63617465247176814A400400000000+
	?debug	C 06616C6C6F635F040006756E6275665F04000562+
	?debug	C 6173655F81270005656275665F81270006706261+
	?debug	C 73655F81270005707074725F8127000665707074+
	?debug	C 725F81270006656261636B5F8127000567707472+
	?debug	C 5F8127000665677074725F812748184073747265+
	?debug	C 616D6275664030646F5F736E6578746324717681+
	?debug	C 4C4A1E4073747265616D62756640302462637472+
	?debug	C 24716D3973747265616D627566814E481E407374+
	?debug	C 7265616D6275664030246261736724716D397374+
	?debug	C 7265616D6275668150C028000000
	?debug	C E24A1C406973747265616D403024626374722471+
	?debug	C 6E3973747265616D62756681724D124069737472+
	?debug	C 65616D4030246264747224717681744A26406973+
	?debug	C 747265616D4030246263747224716E3973747265+
	?debug	C 616D627566696E376F73747265616D81764A1640+
	?debug	C 6973747265616D403024626374722471696E7A63+
	?debug	C 6981784A1C406973747265616D40302462637472+
	?debug	C 247169696E376F73747265616D817A4811406973+
	?debug	C 747265616D403069706678247169817C48124069+
	?debug	C 73747265616D40306970667830247176817E4812+
	?debug	C 406973747265616D403069706678312471768180+
	?debug	C 4811406973747265616D40306973667824717681+
	?debug	C 824812406973747265616D40307365656B672471+
	?debug	C 6C8185481B406973747265616D40307365656B67+
	?debug	C 24716C387365656B5F6469728187481240697374+
	?debug	C 7265616D403074656C6C67247176818948114069+
	?debug	C 73747265616D403073796E63247176818B481540+
	?debug	C 6973747265616D403067657424716E7A63697A63+
	?debug	C 818D4815406973747265616D403067657424716E+
	?debug	C 7563697A63818F4814406973747265616D403072+
	?debug	C 65616424716E7A63698191481440697374726561+
	?debug	C 6D40307265616424716E75636981934819406973+
	?debug	C 747265616D40306765746C696E6524716E7A6369+
	?debug	C 7A6381954819406973747265616D40306765746C+
	?debug	C 696E6524716E7563697A638197481C4069737472+
	?debug	C 65616D403067657424716D3973747265616D6275+
	?debug	C 667A6381994812406973747265616D4030676574+
	?debug	C 24716D7563819B4812406973747265616D403067+
	?debug	C 657424716D7A63819D4810406973747265616D40+
	?debug	C 30676574247176819F4811406973747265616D40+
	?debug	C 307065656B24717681A14813406973747265616D+
	?debug	C 403067636F756E7424717681A348154069737472+
	?debug	C 65616D40307075746261636B24717A6381A54814+
	?debug	C 406973747265616D403069676E6F726524716969+
	?debug	C 81A74826406973747265616D4030246272736824+
	?debug	C 716E716D376973747265616D246D376973747265+
	?debug	C 616D81A9481E406973747265616D403024627273+
	?debug	C 6824716E716D33696F73246D33696F7381AB4814+
	?debug	C 406973747265616D4030246272736824716E7A63+
	?debug	C 81AD4814406973747265616D4030246272736824+
	?debug	C 716E756381AF4814406973747265616D40302462+
	?debug	C 72736824716D756381B14814406973747265616D+
	?debug	C 4030246272736824716D7A6381B3481340697374+
	?debug	C 7265616D4030246272736824716D7381B5481340+
	?debug	C 6973747265616D4030246272736824716D6981B7+
	?debug	C 4813406973747265616D4030246272736824716D+
	?debug	C 6C81B94814406973747265616D40302462727368+
	?debug	C 24716D757381BB4814406973747265616D403024+
	?debug	C 6272736824716D756981BD481440697374726561+
	?debug	C 6D4030246272736824716D756C81BF4813406973+
	?debug	C 747265616D4030246272736824716D6681C14813+
	?debug	C 406973747265616D4030246272736824716D6481+
	?debug	C C34813406973747265616D403024627273682471+
	?debug	C 6D6781C5481C406973747265616D403024627273+
	?debug	C 6824716E3973747265616D62756681C74A124069+
	?debug	C 73747265616D4030246263747224717681C94815+
	?debug	C 406973747265616D403065617477686974652471+
	?debug	C 7681CB4006000000000767636F756E745F044813+
	?debug	C 406973747265616D4030646F5F67657424717681+
	?debug	C CDC032000000
	?debug	C E24A1D40696F73747265616D4030246263747224+
	?debug	C 716E3973747265616D62756681D04D1340696F73+
	?debug	C 747265616D4030246264747224717681D24A1340+
	?debug	C 696F73747265616D4030246263747224717681D4+
	?debug	C C038000000
	?debug	C E24A1E40696F73747265616D5F77697468617373+
	?debug	C 69676E4030246263747224717681D74D1E40696F+
	?debug	C 73747265616D5F7769746861737369676E403024+
	?debug	C 6264747224717681D9482240696F73747265616D+
	?debug	C 5F7769746861737369676E403024626173672471+
	?debug	C 6D33696F7381DC482840696F73747265616D5F77+
	?debug	C 69746861737369676E4030246261736724716E39+
	?debug	C 73747265616D62756681DEC038000000
	?debug	C E24A1D406F73747265616D5F7769746861737369+
	?debug	C 676E4030246263747224717681E24D1D406F7374+
	?debug	C 7265616D5F7769746861737369676E4030246264+
	?debug	C 747224717681E44825406F73747265616D5F7769+
	?debug	C 746861737369676E4030246261736724716D376F+
	?debug	C 73747265616D81E74827406F73747265616D5F77+
	?debug	C 69746861737369676E4030246261736724716E39+
	?debug	C 73747265616D62756681E9C030000000
	?debug	C E24A1D406973747265616D5F7769746861737369+
	?debug	C 676E4030246263747224717681ED4D1D40697374+
	?debug	C 7265616D5F7769746861737369676E4030246264+
	?debug	C 747224717681EF4825406973747265616D5F7769+
	?debug	C 746861737369676E4030246261736724716D3769+
	?debug	C 73747265616D81F24827406973747265616D5F77+
	?debug	C 69746861737369676E4030246261736724716E39+
	?debug	C 73747265616D62756681F4C032000000
	end
