	ifndef	??version
?debug	macro
	endm
publicdll macro	name
	public	name
	endm
$comm	macro	name,dist,size,count
	comm	dist name:BYTE:count*size
	endm
	else
$comm	macro	name,dist,size,count
	comm	dist name[size]:BYTE:count
	endm
	endif
	?debug	V 300h
	?debug	S "timer.cpp"
	?debug	C E9EC64084D0974696D65722E637070
	?debug	C E9168D024D0C2E2E5C685C74696D65722E68
	?debug	C E9817B9D4415633A5C626333315C696E636C7564655C646F732E68
	?debug	C E9817B9D4417633A5C626333315C696E636C7564655C5F64656673+
	?debug	C 2E68
	?debug	C E99364084D0B2E2E5C685C6C6F636B2E68
TIMER_TEXT	segment byte public 'CODE'
TIMER_TEXT	ends
	assume	cs:TIMER_TEXT,ds:TIMER_DATA
TIMER_DATA	segment word public 'FAR_DATA'
d@	label	byte
d@w	label	word
b@	label	byte
b@w	label	word
g	label	word
	db	0
	db	0
	?debug	C E9E28B024D0D2E2E5C685C7468726561642E68
	?debug	C E9817B9D441A633A5C626333315C696E636C7564655C494F535452+
	?debug	C 45414D2E48
	?debug	C E9817B9D4415633A5C626333315C696E636C7564655C6D656D2E68
	?debug	C E9817B9D4417633A5C626333315C696E636C7564655C5F6E756C6C+
	?debug	C 2E68
	?debug	C E91C5D084D0D2E2E5C685C6B65726E656C2E68
	?debug	C E9BB94FD4C0F2E2E5C685C736C6565704C73742E68
	?debug	C E9DB767A4012696E636C7564655C5343484544554C452E48
	?debug	C E9817B9D4417633A5C626333315C696E636C7564655C535444494F+
	?debug	C 2E48
	?debug	C E9817B9D4418633A5C626333315C696E636C7564655C5F6E66696C+
	?debug	C 652E68
	?debug	C E9817B9D441A633A5C626333315C696E636C7564655C494F535452+
	?debug	C 45414D2E48
	?debug	C E96958084D0B2E2E5C685C69646C652E68
	?debug	C E9E28B024D0D2E2E5C685C7468726561642E68
	?debug	C E9817B9D441A633A5C626333315C696E636C7564655C494F535452+
	?debug	C 45414D2E48
	?debug	C E93C79034D0A2E2E5C685C7063622E68
	?debug	C E9817B9D441A633A5C626333315C696E636C7564655C494F535452+
	?debug	C 45414D2E48
	?debug	C E97B60084D0E2E2E5C685C4C5072696E74662E68
	?debug	C E9817B9D4417633A5C626333315C696E636C7564655C737464696F+
	?debug	C 2E68
	?debug	C E9817B9D441A633A5C626333315C696E636C7564655C494F535452+
	?debug	C 45414D2E48
	?debug	C E99364084D0B2E2E5C685C6C6F636B2E68
TIMER_DATA	ends
TIMER5_DATA	segment para public 'FAR_DATA'
@Timer@0expl	label	word
	db	0
	db	0
@Timer@0timeUntilThreadStop	label	word
	db	1
	db	0
@Timer@0ticking	label	word
	db	1
	db	0
@Timer@0old	label	dword
	db	0
	db	0
	db	0
	db	0
TIMER5_DATA	ends
TIMER_TEXT	segment byte public 'CODE'
	?debug	C E8010974696D65722E637070EC64084D
   ;	
   ;	Timer::Timer()
   ;	
	?debug	L 26
	assume	cs:TIMER_TEXT
@Timer@0$bctr$qv	proc	far
	?debug	B
	push	bp
	mov	bp,sp
	push	ds
	mov	ax,TIMER_DATA
	mov	ds,ax
	?debug	C F8104054696D657240302462637472247176
	?debug	C E318000400161900
	?debug	C E604746869731802060000
	?debug	B
   ;	
   ;	{
   ;	
	?debug	L 27
	mov	ax,word ptr [bp+6]
	or	ax,word ptr [bp+8]
	jne	short @1@86
	mov	ax,4
	push	ax
	call	far ptr @$bnew$qui
	pop	cx
	mov	word ptr [bp+8],dx
	mov	word ptr [bp+6],ax
	or	ax,dx
	je	short @1@226
@1@86:
	les	bx,dword ptr [bp+6]
	mov	word ptr es:[bx+2],seg @@Timer@0
	mov	word ptr es:[bx],offset @@Timer@0
   ;	
   ;		lock
   ;	
	?debug	L 28
	pushf	
 	cli	
   ;	
   ;		//timeUntilThreadStop = 1;
   ;		//ticking = 1;
   ;		//expl = 0;
   ;		old = getvect(TIMER_ENTRY);
   ;	
	?debug	L 32
	mov	ax,8
	push	ax
	call	far ptr _getvect
	pop	cx
	mov	bx,seg @Timer@0old
	mov	es,bx
	mov	word ptr es:@Timer@0old+2,dx
	mov	word ptr es:@Timer@0old,ax
   ;	
   ;		setvect(TIMER_ENTRY, timer);
   ;	
	?debug	L 33
	mov	ax,seg @Timer@0timer$qve
	push	ax
	mov	ax,offset @Timer@0timer$qve
	push	ax
	mov	ax,8
	push	ax
	call	far ptr _setvect
	add	sp,6
   ;	
   ;		//timer();
   ;		unlock
   ;	
	?debug	L 35
	popf	
@1@226:
   ;	
   ;	}
   ;	
	?debug	L 36
	mov	dx,word ptr [bp+8]
	mov	ax,word ptr [bp+6]
	jmp	short @1@254
@1@254:
	pop	ds
	pop	bp
	ret	
	?debug	C E604746869731802060000
	?debug	E
	?debug	E
@Timer@0$bctr$qv	endp
   ;	
   ;	void Timer::~Timer()
   ;	
	?debug	L 38
	assume	cs:TIMER_TEXT
@Timer@0$bdtr$qv	proc	far
	?debug	B
	push	bp
	mov	bp,sp
	push	si
	push	ds
	mov	ax,TIMER_DATA
	mov	ds,ax
	?debug	C F8104054696D657240302462647472247176
	?debug	C E60664656C657465040A0A000004746869731802+
	?debug	C 060000
	mov	si,word ptr [bp+10]
	?debug	B
   ;	
   ;	{
   ;	
	?debug	L 39
	mov	ax,word ptr [bp+6]
	or	ax,word ptr [bp+8]
	je	short @2@254
	les	bx,dword ptr [bp+6]
	mov	word ptr es:[bx+2],seg @@Timer@0
	mov	word ptr es:[bx],offset @@Timer@0
   ;	
   ;		lock
   ;	
	?debug	L 40
	pushf	
 	cli	
   ;	
   ;		setvect(TIMER_ENTRY, old);
   ;	
	?debug	L 41
	mov	ax,seg @Timer@0old
	mov	es,ax
	push	word ptr es:@Timer@0old+2
	push	word ptr es:@Timer@0old
	mov	ax,8
	push	ax
	call	far ptr _setvect
	add	sp,6
   ;	
   ;		unlock
   ;	
	?debug	L 42
	popf	
	test	si,1
	je	short @2@254
	push	word ptr [bp+8]
	push	word ptr [bp+6]
	call	far ptr @$bdele$qnv
	pop	cx
	pop	cx
@2@254:
   ;	
   ;	}
   ;	
	?debug	L 43
	pop	ds
	pop	si
	pop	bp
	ret	
	?debug	C E6047468697318020600000664656C657465040C+
	?debug	C 0600
	?debug	E
	?debug	E
@Timer@0$bdtr$qv	endp
   ;	
   ;	void Timer::setValue(int timeSlice)
   ;	
	?debug	L 45
	assume	cs:TIMER_TEXT
@Timer@0setValue$qi	proc	far
	?debug	B
	push	bp
	mov	bp,sp
	push	ds
	mov	ax,TIMER_DATA
	mov	ds,ax
	?debug	C F8134054696D6572403073657456616C75652471+
	?debug	C 69
	?debug	C E60974696D65536C696365040A0A000004746869+
	?debug	C 731802060000
	?debug	B
   ;	
   ;	{
   ;		lock
   ;	
	?debug	L 47
	pushf	
 	cli	
   ;	
   ;		timeUntilThreadStop = timeSlice;
   ;	
	?debug	L 48
	mov	ax,seg @Timer@0timeUntilThreadStop
	mov	dx,word ptr [bp+10]
	mov	es,ax
	mov	word ptr es:@Timer@0timeUntilThreadStop,dx
   ;	
   ;		ticking = 1; //true
   ;	
	?debug	L 49
	mov	ax,seg @Timer@0ticking
	mov	es,ax
	mov	word ptr es:@Timer@0ticking,1
   ;	
   ;		unlock
   ;	
	?debug	L 50
	popf	
   ;	
   ;	}
   ;	
	?debug	L 51
	pop	ds
	pop	bp
	ret	
	?debug	C E6047468697318020600000974696D65536C6963+
	?debug	C 65040A0A0000
	?debug	E
	?debug	E
@Timer@0setValue$qi	endp
   ;	
   ;	void Timer::turnOFF()
   ;	
	?debug	L 53
	assume	cs:TIMER_TEXT
@Timer@0turnOFF$qv	proc	far
	?debug	B
	push	bp
	mov	bp,sp
	push	ds
	mov	ax,TIMER_DATA
	mov	ds,ax
	?debug	C F8124054696D657240307475726E4F4646247176
	?debug	C E604746869731802060000
	?debug	B
   ;	
   ;	{
   ;		lock
   ;	
	?debug	L 55
	pushf	
 	cli	
   ;	
   ;		ticking = 0; //false
   ;	
	?debug	L 56
	mov	ax,seg @Timer@0ticking
	mov	es,ax
	mov	word ptr es:@Timer@0ticking,0
   ;	
   ;		timeUntilThreadStop = 0;
   ;	
	?debug	L 57
	mov	ax,seg @Timer@0timeUntilThreadStop
	mov	es,ax
	mov	word ptr es:@Timer@0timeUntilThreadStop,0
   ;	
   ;	
   ;		unlock
   ;	
	?debug	L 59
	popf	
   ;	
   ;	}
   ;	
	?debug	L 60
	pop	ds
	pop	bp
	ret	
	?debug	C E604746869731802060000
	?debug	E
	?debug	E
@Timer@0turnOFF$qv	endp
TIMER_TEXT	ends
TIMER_DATA	segment word public 'FAR_DATA'
	db	2 dup (0)
	db	2 dup (0)
	db	2 dup (0)
	db	4 dup (0)
TIMER_DATA	ends
TIMER_TEXT	segment byte public 'CODE'
   ;	
   ;	void interrupt Timer::timer(...)
   ;	
	?debug	L 62
	assume	cs:TIMER_TEXT
@Timer@0timer$qve	proc	far
	?debug	B
	push	ax
	push	bx
	push	cx
	push	dx
	push	es
	push	ds
	push	si
	push	di
	push	bp
	mov	bp,TIMER_DATA
	mov	ds,bp
	mov	bp,sp
	?debug	C F8114054696D6572403074696D657224717665
	?debug	B
   ;	
   ;	{
   ;		//lock
   ;		(*old)(...);
   ;	
	?debug	L 65
	push	ss
	lea	ax,word ptr [bp]
	push	ax
	mov	ax,seg @Timer@0old
	pushf	
	mov	es,ax
	call	dword ptr es:@Timer@0old
	pop	cx
	pop	cx
   ;	
   ;		static unsigned int tmpStackOffset, tmpStackSegment, basePointer;
   ;		static PCB *newPCB;
   ;		if(KERNEL::running == NULL)
   ;	
	?debug	L 68
	mov	ax,seg @KERNEL@0running
	mov	es,ax
	mov	ax,word ptr es:@KERNEL@0running
	or	ax,word ptr es:@KERNEL@0running+2
	jne	short @5@86
   ;	
   ;			KERNEL::running = KERNEL::idle->getPCB();
   ;	
	?debug	L 69
	mov	ax,seg @KERNEL@0idle
	mov	es,ax
	push	word ptr es:@KERNEL@0idle+2
	push	word ptr es:@KERNEL@0idle
	call	far ptr @Idle@0getPCB$qv
	pop	cx
	pop	cx
	mov	bx,seg @KERNEL@0running
	mov	es,bx
	mov	word ptr es:@KERNEL@0running+2,dx
	mov	word ptr es:@KERNEL@0running,ax
@5@86:
   ;	
   ;		if(expl == 0)
   ;	
	?debug	L 70
	mov	ax,seg @Timer@0expl
	mov	es,ax
	cmp	word ptr es:@Timer@0expl,0
	jne	short @5@198
   ;	
   ;		{
   ;			//tick();
   ;			printf("bb");
   ;	
	?debug	L 73
	push	ds
	mov	ax,offset s@
	push	ax
	call	far ptr _printf
	pop	cx
	pop	cx
   ;	
   ;			KERNEL::sleeping->decrease();
   ;	
	?debug	L 74
	mov	ax,seg @KERNEL@0sleeping
	mov	es,ax
	push	word ptr es:@KERNEL@0sleeping+2
	push	word ptr es:@KERNEL@0sleeping
	call	far ptr @SleepingList@0decrease$qv
	pop	cx
	pop	cx
   ;	
   ;			
   ;			if(timeUntilThreadStop > 0)
   ;	
	?debug	L 76
	mov	ax,seg @Timer@0timeUntilThreadStop
	mov	es,ax
	cmp	word ptr es:@Timer@0timeUntilThreadStop,0
	jle	short @5@170
   ;	
   ;				timeUntilThreadStop--;
   ;	
	?debug	L 77
	mov	ax,seg @Timer@0timeUntilThreadStop
	mov	es,ax
	dec	word ptr es:@Timer@0timeUntilThreadStop
@5@170:
   ;	
   ;			printf("aa");
   ;	
	?debug	L 78
	push	ds
	mov	ax,offset s@+3
	push	ax
	call	far ptr _printf
	pop	cx
	pop	cx
@5@198:
   ;	
   ;		}
   ;		if(expl || (timeUntilThreadStop == 0 && ticking == 1))
   ;	
	?debug	L 80
	mov	ax,seg @Timer@0expl
	mov	es,ax
	cmp	word ptr es:@Timer@0expl,0
	jne	short @5@282
	mov	ax,seg @Timer@0timeUntilThreadStop
	mov	es,ax
	cmp	word ptr es:@Timer@0timeUntilThreadStop,0
	je	@@1
	jmp	@5@702
@@1:
	mov	ax,seg @Timer@0ticking
	mov	es,ax
	cmp	word ptr es:@Timer@0ticking,1
	je	@@2
	jmp	@5@702
@@2:
@5@282:
   ;	
   ;		{
   ;			printf("tes");
   ;	
	?debug	L 82
	push	ds
	mov	ax,offset s@+6
	push	ax
	call	far ptr _printf
	pop	cx
	pop	cx
   ;	
   ;			if(KERNEL::running->getState() == PCB::RUNNING && KERNEL::running != KERNEL::idle->getPCB())
   ;	
	?debug	L 83
	mov	ax,seg @KERNEL@0running
	mov	es,ax
	push	word ptr es:@KERNEL@0running+2
	push	word ptr es:@KERNEL@0running
	call	far ptr @PCB@0getState$qv
	pop	cx
	pop	cx
	cmp	ax,2
	jne	short @5@394
	mov	ax,seg @KERNEL@0idle
	mov	es,ax
	push	word ptr es:@KERNEL@0idle+2
	push	word ptr es:@KERNEL@0idle
	call	far ptr @Idle@0getPCB$qv
	pop	cx
	pop	cx
	mov	bx,seg @KERNEL@0running
	mov	es,bx
	cmp	dx,word ptr es:@KERNEL@0running+2
	jne	short @5@366
	cmp	ax,word ptr es:@KERNEL@0running
	je	short @5@394
@5@366:
   ;	
   ;			{
   ;				printf("rr");
   ;	
	?debug	L 85
	push	ds
	mov	ax,offset s@+10
	push	ax
	call	far ptr _printf
	pop	cx
	pop	cx
   ;	
   ;				Scheduler::put(KERNEL::running);
   ;	
	?debug	L 86
	mov	ax,seg @KERNEL@0running
	mov	es,ax
	push	word ptr es:@KERNEL@0running+2
	push	word ptr es:@KERNEL@0running
	call	far ptr @Scheduler@0put$qn3PCB
	pop	cx
	pop	cx
   ;	
   ;				KERNEL::running->setState(PCB::ACTIVE);
   ;	
	?debug	L 87
	mov	ax,1
	push	ax
	mov	ax,seg @KERNEL@0running
	mov	es,ax
	push	word ptr es:@KERNEL@0running+2
	push	word ptr es:@KERNEL@0running
	call	far ptr @PCB@0setState$q5State
	add	sp,6
@5@394:
   ;	
   ;			}
   ;			LockPrintf(5);
   ;	
	?debug	L 89
	mov	ax,5
	push	ax
	call	far ptr @LockPrintf$qui
	pop	cx
   ;	
   ;			newPCB = Scheduler::get();
   ;	
	?debug	L 90
	call	far ptr @Scheduler@0get$qv
	mov	word ptr d@w+8+2,dx
	mov	word ptr d@w+8,ax
   ;	
   ;			if(newPCB == 0)
   ;	
	?debug	L 91
	mov	ax,word ptr d@w+8
	or	ax,word ptr d@w+8+2
	jne	short @5@450
   ;	
   ;			{
   ;				newPCB = KERNEL::idle->getPCB();
   ;	
	?debug	L 93
	mov	ax,seg @KERNEL@0idle
	mov	es,ax
	push	word ptr es:@KERNEL@0idle+2
	push	word ptr es:@KERNEL@0idle
	call	far ptr @Idle@0getPCB$qv
	pop	cx
	pop	cx
	mov	word ptr d@w+8+2,dx
	mov	word ptr d@w+8,ax
   ;	
   ;				LockPrintf("FFF");
   ;	
	?debug	L 94
	push	ds
	mov	ax,offset s@+13
	push	ax
	call	far ptr @LockPrintf$qnzc
	pop	cx
	pop	cx
@5@450:
   ;	
   ;			}
   ;			timeUntilThreadStop = newPCB->getTime();
   ;	
	?debug	L 96
	push	word ptr d@w+8+2
	push	word ptr d@w+8
	call	far ptr @PCB@0getTime$qv
	pop	cx
	pop	cx
	mov	dx,seg @Timer@0timeUntilThreadStop
	mov	es,dx
	mov	word ptr es:@Timer@0timeUntilThreadStop,ax
   ;	
   ;			newPCB->setState(PCB::RUNNING);
   ;	
	?debug	L 97
	mov	ax,2
	push	ax
	push	word ptr d@w+8+2
	push	word ptr d@w+8
	call	far ptr @PCB@0setState$q5State
	add	sp,6
   ;	
   ;			asm{
   ;				mov tmpStackSegment, ss;
   ;	
	?debug	L 99
	mov	 d@w+4, ss
   ;	
   ;				mov tmpStackOffset, sp;
   ;	
	?debug	L 100
	mov	 d@w+2, sp
   ;	
   ;				mov basePointer, bp;
   ;	
	?debug	L 101
	mov	 d@w+6, bp
   ;	
   ;			}
   ;			KERNEL::running->stackOffset = tmpStackOffset;
   ;	
	?debug	L 103
	mov	ax,seg @KERNEL@0running
	mov	es,ax
	les	bx,dword ptr es:@KERNEL@0running
	mov	ax,word ptr d@w+2
	mov	word ptr es:[bx+10],ax
   ;	
   ;			KERNEL::running->stackSegment = tmpStackSegment;
   ;	
	?debug	L 104
	mov	ax,seg @KERNEL@0running
	mov	es,ax
	les	bx,dword ptr es:@KERNEL@0running
	mov	ax,word ptr d@w+4
	mov	word ptr es:[bx+8],ax
   ;	
   ;			KERNEL::running->basePointer = basePointer;
   ;	
	?debug	L 105
	mov	ax,seg @KERNEL@0running
	mov	es,ax
	les	bx,dword ptr es:@KERNEL@0running
	mov	ax,word ptr d@w+6
	mov	word ptr es:[bx+12],ax
   ;	
   ;			KERNEL::running = newPCB;
   ;	
	?debug	L 106
	mov	ax,seg @KERNEL@0running
	mov	dx,word ptr d@w+8+2
	mov	bx,word ptr d@w+8
	mov	es,ax
	mov	word ptr es:@KERNEL@0running+2,dx
	mov	word ptr es:@KERNEL@0running,bx
   ;	
   ;			tmpStackOffset = KERNEL::running->stackOffset;
   ;	
	?debug	L 107
	mov	ax,seg @KERNEL@0running
	mov	es,ax
	les	bx,dword ptr es:@KERNEL@0running
	mov	ax,word ptr es:[bx+10]
	mov	word ptr d@w+2,ax
   ;	
   ;			tmpStackSegment = KERNEL::running->stackSegment;
   ;	
	?debug	L 108
	mov	ax,seg @KERNEL@0running
	mov	es,ax
	les	bx,dword ptr es:@KERNEL@0running
	mov	ax,word ptr es:[bx+8]
	mov	word ptr d@w+4,ax
   ;	
   ;			basePointer = KERNEL::running->basePointer;
   ;	
	?debug	L 109
	mov	ax,seg @KERNEL@0running
	mov	es,ax
	les	bx,dword ptr es:@KERNEL@0running
	mov	ax,word ptr es:[bx+12]
	mov	word ptr d@w+6,ax
   ;	
   ;			LockPrintf(7);
   ;	
	?debug	L 110
	mov	ax,7
	push	ax
	call	far ptr @LockPrintf$qui
	pop	cx
   ;	
   ;			asm{
   ;				mov ss, tmpStackSegment;
   ;	
	?debug	L 112
	mov	 ss, d@w+4
   ;	
   ;				mov sp, tmpStackOffset;
   ;	
	?debug	L 113
	mov	 sp, d@w+2
   ;	
   ;				mov bp, basePointer;
   ;	
	?debug	L 114
	mov	 bp, d@w+6
   ;	
   ;			}
   ;			expl = 0;
   ;	
	?debug	L 116
	mov	ax,seg @Timer@0expl
	mov	es,ax
	mov	word ptr es:@Timer@0expl,0
   ;	
   ;			//unlock
   ;			return;
   ;	
	?debug	L 118
	jmp	short @5@702
@5@702:
   ;	
   ;		}
   ;	
   ;		//unlock
   ;	}
   ;	
	?debug	L 122
	pop	bp
	pop	di
	pop	si
	pop	ds
	pop	es
	pop	dx
	pop	cx
	pop	bx
	pop	ax
	iret	
	?debug	C E31A000400161B00
	?debug	C E6066E65775043421A0000020800000B62617365+
	?debug	C 506F696E7465720A0000020600000F746D705374+
	?debug	C 61636B5365676D656E740A0000020400000E746D+
	?debug	C 70537461636B4F66667365740A000002020000
	?debug	E
	?debug	E
@Timer@0timer$qve	endp
TIMER_TEXT	ends
TIMER_TEXT	segment byte public 'CODE'
@Timer@0	segment	virtual
@@Timer@0	label	byte
	dd	@Timer@0$bdtr$qv
	?debug	C E9
	?debug	C FA00000000
@Timer@0	ends
TIMER_TEXT	ends
TIMER_DATA	segment word public 'FAR_DATA'
s@	label	byte
	db	'bb'
	db	0
	db	'aa'
	db	0
	db	'tes'
	db	0
	db	'rr'
	db	0
	db	'FFF'
	db	0
TIMER_DATA	ends
TIMER_TEXT	segment byte public 'CODE'
TIMER_TEXT	ends
	?debug	C E31B0350434226002E02
	?debug	C ED00020000010E00
	?debug	C E31C0000002D1A04011B00184050434240302462+
	?debug	C 63747224716E36546872656164756C69
	?debug	C E31E0000002D0104011B000E4050434240302462+
	?debug	C 647472247176
	?debug	C E3210654687265616408002E03
	?debug	C ED000300001D0E00
	?debug	C E3220000002D0104012100114054687265616440+
	?debug	C 307374617274247176
	?debug	C E3240000002D01040121001A4054687265616440+
	?debug	C 3077616974546F436F6D706C657465247176
	?debug	C E3260000002D0104012100114054687265616440+
	?debug	C 302462647472247176
	?debug	C E3280000002D0104012100124054687265616440+
	?debug	C 30736C65657024717569
	?debug	C E32A0000002D2004012100144054687265616440+
	?debug	C 3024626374722471756C7569
	?debug	C E32C0000002D0104092102
	?debug	C E320000400162100
	?debug	C E32E055374617465020022000080FF7F26
	?debug	C E3300000002D0104011B00164050434240307365+
	?debug	C 7453746174652471355374617465
	?debug	C E3320000002D2E04011B00114050434240306765+
	?debug	C 745374617465247176
	?debug	C E3340000002D0404011B00104050434240306765+
	?debug	C 7454696D65247176
	?debug	C E3360000002D0104011B000E4050434240307374+
	?debug	C 617274247176
	?debug	C E3380000002D0104011B00174050434240307761+
	?debug	C 6974546F436F6D706C657465247176
	?debug	C E33A000400160100
	?debug	C E33B0000002D0104011B000F405043424030736C+
	?debug	C 65657024717569
	?debug	C E33D0000002D0104011B000C4050434240307275+
	?debug	C 6E247176
	?debug	C E33F0000002D0104011B00144050434240307275+
	?debug	C 6E5F77726170706572247176
	?debug	C E341000400160A00
	?debug	C E3420000002D0104011B00154050434240306372+
	?debug	C 65617465537461636B24717569
	?debug	C E3190554696D657204002E01
	?debug	C ED000100002B0E00
	?debug	C E3440000002D1804011900104054696D65724030+
	?debug	C 2462637472247176
	?debug	C E3460000002D0104011900134054696D65724030+
	?debug	C 73657456616C7565247169
	?debug	C E3480000002D0104011900124054696D65724030+
	?debug	C 7475726E4F4646247176
	?debug	C E34A0000002D0104011900104054696D65724030+
	?debug	C 2462647472247176
	?debug	C E34C0000002D0107011900114054696D65724030+
	?debug	C 74696D657224717665
	?debug	C E34F00000023010701
	?debug	C E34E000400164F00
	extrn	@LockPrintf$qui:far
	extrn	@LockPrintf$qnzc:far
	extrn	@PCB@0getTime$qv:far
	extrn	@PCB@0getState$qv:far
	extrn	@PCB@0setState$q5State:far
	extrn	@Idle@0getPCB$qv:far
	extrn	_printf:far
	extrn	@Scheduler@0get$qv:far
	extrn	@Scheduler@0put$qn3PCB:far
	extrn	@SleepingList@0decrease$qv:far
	extrn	@KERNEL@0idle:dword
	extrn	@KERNEL@0sleeping:dword
	extrn	@KERNEL@0running:dword
_g	equ	g
	extrn	_setvect:far
	extrn	_getvect:far
_pokeb	equ	pokeb
_poke	equ	poke
_peekb	equ	peekb
_peek	equ	peek
	public	@Timer@0timeUntilThreadStop
	public	@Timer@0ticking
	public	@Timer@0old
	public	@Timer@0expl
	public	@Timer@0timer$qve
	public	@Timer@0$bdtr$qv
	public	@Timer@0turnOFF$qv
	public	@Timer@0setValue$qi
	public	@Timer@0$bctr$qv
	extrn	@$bdele$qnv:far
	extrn	@$bnew$qui:far
_s@	equ	s@
	?debug	C EA050D
	?debug	C E35000000023010400
	?debug	C EB0F404C6F636B5072696E7466247175695000
	?debug	C E35100000023010400
	?debug	C EB10404C6F636B5072696E746624716E7A635100
	?debug	C E35200000023040401
	?debug	C EB075F7072696E74665200
	?debug	C E353095363686564756C657201002E04
	?debug	C ED00040000350E00
	?debug	C E3540000002D010401530016405363686564756C+
	?debug	C 6572403070757424716E33504342
	?debug	C E3560000002D1A0401530012405363686564756C+
	?debug	C 65724030676574247176
	?debug	C E3580C536C656570696E674C69737408002E05
	?debug	C ED00050000380E00
	?debug	C E3590000002D01040158001A40536C656570696E+
	?debug	C 674C69737440306465637265617365247176
	?debug	C E35B0000002D01040158001A40536C656570696E+
	?debug	C 674C69737440307075736824716E33504342
	?debug	C E35D000400165800
	?debug	C E35E0000002D5D040158001740536C656570696E+
	?debug	C 674C69737440302462637472247176
	?debug	C E3600000002D01040158001740536C656570696E+
	?debug	C 674C69737440302462647472247176
	?debug	C E3621340536C656570696E674C6973744030456C+
	?debug	C 656D08002E06
	?debug	C ED00060000400F00
	?debug	C E363000400166200
	?debug	C E3640000002D6304096200
	?debug	C E3660000002D6304096200
	?debug	C E3680449646C6508002E07
	?debug	C ED00070000450E010300
	?debug	C E369000400166800
	?debug	C E36A0000002D69040168000F4049646C65403024+
	?debug	C 62637472247176
	?debug	C E36C0000002D01040168020D4049646C65403072+
	?debug	C 756E247176
	?debug	C E36E0000002D01040168000F4049646C65403073+
	?debug	C 74617274247176
	?debug	C E3700000002D1A04016800104049646C65403067+
	?debug	C 6574504342247176
	?debug	C E37503696F732A002E0B
	?debug	C ED000B00004A0E00
	?debug	C E37608696F5F7374617465020022000080FF7F80+
	?debug	C 88
	?debug	C E378096F70656E5F6D6F6465020022000080FF7F+
	?debug	C 808D
	?debug	C E37A087365656B5F646972020022000080FF7F80+
	?debug	C 95
	?debug	C E37C000400167500
	?debug	C E37D0000002D7C040175001840696F7340302462+
	?debug	C 63747224716E3973747265616D627566
	?debug	C E37F0000002D01040175000E40696F7340302462+
	?debug	C 647472247176
	?debug	C E380810000002D0604097500
	?debug	C E380830000002D06040175000E40696F73403066+
	?debug	C 6C61677324716C
	?debug	C E380850000002D06040175000E40696F73403073+
	?debug	C 65746624716C6C
	?debug	C E380870000002D06040175000D40696F73403073+
	?debug	C 65746624716C
	?debug	C E380890000002D06040175000F40696F73403075+
	?debug	C 6E7365746624716C
	?debug	C E3808B0000002D0404097500
	?debug	C E3808D0000002D0404097500
	?debug	C E3808F0000002D0204097500
	?debug	C E380910000002D0204097500
	?debug	C E380930000002D0404097500
	?debug	C E380950000002D0404097500
	?debug	C E38098076F73747265616D30002E0C
	?debug	C ED000C020080980E010B80
	?debug	C E380990000002D809704018098001C406F737472+
	?debug	C 65616D4030246263747224716E3973747265616D+
	?debug	C 627566
	?debug	C E3809B0000002D01040180980012406F73747265+
	?debug	C 616D40302462647472247176
	?debug	C E3809D0000002D8097040180980012406F737472+
	?debug	C 65616D40302462637472247169
	?debug	C E3809F0000002D8097040180980015406F737472+
	?debug	C 65616D403024626374722471696E7A63
	?debug	C E380A10000002D040409809800
	?debug	C E380A30000002D010409809800
	?debug	C E380A500040035809800
	?debug	C E380A60000002D80A5040180980012406F737472+
	?debug	C 65616D4030666C757368247176
	?debug	C E380A80000002D80A5040180980012406F737472+
	?debug	C 65616D40307365656B7024716C
	?debug	C E380AA0000002D80A504018098001B406F737472+
	?debug	C 65616D40307365656B7024716C387365656B5F64+
	?debug	C 6972
	?debug	C E380AC0000002D06040180980012406F73747265+
	?debug	C 616D403074656C6C70247176
	?debug	C E380AE0000002D80A50409809800
	?debug	C E380B00000002D80A5040180980016406F737472+
	?debug	C 65616D4030777269746524716E787A6369
	?debug	C E380B20000002D80A50409809800
	?debug	C E380B40000002D80A5040580980013406F737472+
	?debug	C 65616D403024626C736824717A63
	?debug	C E380B60000002D80A5040D809800
	?debug	C E380B80000002D80A5040D809800
	?debug	C E380BA0000002D80A5040D809800
	?debug	C E380BC0000002D80A5040D809800
	?debug	C E380BE0000002D80A5040D809800
	?debug	C E380C00000002D80A5040580980012406F737472+
	?debug	C 65616D403024626C736824716C
	?debug	C E380C20000002D80A5040580980013406F737472+
	?debug	C 65616D403024626C73682471756C
	?debug	C E380C40000002D80A5040D809800
	?debug	C E380C60000002D80A5040D809800
	?debug	C E380C80000002D80A5040580980012406F737472+
	?debug	C 65616D403024626C7368247167
	?debug	C E380CA0000002D80A5040D809800
	?debug	C E380CC0000002D80A5040D809800
	?debug	C E380CE0000002D80A5040580980013406F737472+
	?debug	C 65616D403024626C736824716E76
	?debug	C E380D00000002D80A504058098001C406F737472+
	?debug	C 65616D403024626C736824716E3973747265616D+
	?debug	C 627566
	?debug	C E380D20000002D80A5040D809800
	?debug	C E380D40000002D80A504058098001E406F737472+
	?debug	C 65616D403024626C736824716E716D33696F7324+
	?debug	C 6D33696F73
	?debug	C E380D60000002D04040180980014406F73747265+
	?debug	C 616D4030646F5F6F706678247176
	?debug	C E380D80000002D01040180980014406F73747265+
	?debug	C 616D4030646F5F6F736678247176
	?debug	C E380DA0000002D8097040180980012406F737472+
	?debug	C 65616D40302462637472247176
	?debug	C E380DC0000002D01040180980018406F73747265+
	?debug	C 616D40306F757473747224716E787A637431
	?debug	C E3809700040016809800
	?debug	C E380DE0000002D8097040175001440696F734030+
	?debug	C 74696524716E376F73747265616D
	?debug	C E380E00000002D809704097500
	?debug	C E380E20000002D0404097500
	?debug	C E380E40000002D0404097500
	?debug	C E380E60000002D0404097500
	?debug	C E380E80000002D0404097500
	?debug	C E380EA0000002D0404097500
	?debug	C E380EC0000002D01040175000E40696F73403063+
	?debug	C 6C656172247169
	?debug	C E380EE000400160100
	?debug	C E380EF0000002D80EE04097500
	?debug	C E380F10000002D04040D7500
	?debug	C E380F40973747265616D62756628002E0D
	?debug	C ED000D000080BB0E00
	?debug	C E380F50000002D80F3040180F400144073747265+
	?debug	C 616D62756640302462637472247176
	?debug	C E380F70000002D80F3040180F400174073747265+
	?debug	C 616D6275664030246263747224716E7A6369
	?debug	C E380F90000002D01040180F40014407374726561+
	?debug	C 6D62756640302462647472247176
	?debug	C E380FB0000002D80F3040180F402184073747265+
	?debug	C 616D627566403073657462756624716E7A6369
	?debug	C E380FD0000002D80F3040980F400
	?debug	C E380FF0000002D80F3040180F400194073747265+
	?debug	C 616D627566403073657462756624716E7A636969
	?debug	C E381010000002D04040980F400
	?debug	C E381030000002D04040980F400
	?debug	C E381050000002D04040980F400
	?debug	C E381070000002D01040980F400
	?debug	C E381090000002D04040180F40017407374726561+
	?debug	C 6D6275664030736765746E24716E7A6369
	?debug	C E3810B0000002D04040180F4041A407374726561+
	?debug	C 6D6275664030646F5F736765746E24716E7A6369
	?debug	C E3810D0000002D04040180F40618407374726561+
	?debug	C 6D6275664030756E646572666C6F77247176
	?debug	C E3810F0000002D04040980F400
	?debug	C E381110000002D04040180F40818407374726561+
	?debug	C 6D6275664030706261636B6661696C247169
	?debug	C E381130000002D04040980F400
	?debug	C E381150000002D04040980F400
	?debug	C E381170000002D04040180F40018407374726561+
	?debug	C 6D6275664030737075746E24716E787A6369
	?debug	C E381190000002D04040180F40A1B407374726561+
	?debug	C 6D6275664030646F5F737075746E24716E787A63+
	?debug	C 69
	?debug	C E3811B0000002D04040180F40C17407374726561+
	?debug	C 6D62756640306F766572666C6F77247169
	?debug	C E3811D0000002D04040980F400
	?debug	C E3811F0000002D06040180F40E20407374726561+
	?debug	C 6D62756640307365656B6F666624716C38736565+
	?debug	C 6B5F64697269
	?debug	C E381210000002D06040180F41017407374726561+
	?debug	C 6D62756640307365656B706F7324716C69
	?debug	C E381230000002D04040180F41213407374726561+
	?debug	C 6D627566403073796E63247176
	?debug	C E381250000002D01040180F40012407374726561+
	?debug	C 6D6275664030646270247176
	?debug	C E38127000400160200
	?debug	C E381280000002D8127040980F400
	?debug	C E3812A0000002D8127040980F400
	?debug	C E3812C0000002D04040980F400
	?debug	C E3812E0000002D8127040980F400
	?debug	C E381300000002D8127040980F400
	?debug	C E381320000002D8127040980F400
	?debug	C E381340000002D8127040980F400
	?debug	C E381360000002D8127040980F400
	?debug	C E381380000002D8127040980F400
	?debug	C E3813A0000002D01040180F40017407374726561+
	?debug	C 6D62756640307365747024716E7A637431
	?debug	C E3813C0000002D01040180F40019407374726561+
	?debug	C 6D62756640307365746724716E7A6374317431
	?debug	C E3813E0000002D01040980F400
	?debug	C E381400000002D01040980F400
	?debug	C E381420000002D01040180F40018407374726561+
	?debug	C 6D62756640307365746224716E7A63743169
	?debug	C E381440000002D01040980F400
	?debug	C E381460000002D04040980F400
	?debug	C E381480000002D04040980F400
	?debug	C E3814A0000002D04040180F41419407374726561+
	?debug	C 6D6275664030646F616C6C6F63617465247176
	?debug	C E3814C0000002D04040180F40018407374726561+
	?debug	C 6D6275664030646F5F736E65787463247176
	?debug	C E3814E0000002D80F3040180F4001E4073747265+
	?debug	C 616D6275664030246263747224716D3973747265+
	?debug	C 616D627566
	?debug	C E381500000002D01040580F4001E407374726561+
	?debug	C 6D6275664030246261736724716D397374726561+
	?debug	C 6D627566
	?debug	C E380F30004001680F400
	?debug	C E381520000002D80F304097500
	?debug	C E381540000002D06040175001140696F73403062+
	?debug	C 6974616C6C6F63247176
	?debug	C E381560000002D04040175000F40696F73403078+
	?debug	C 616C6C6F63247176
	?debug	C E38158000400350600
	?debug	C E381590000002D8158040175000E40696F734030+
	?debug	C 69776F7264247169
	?debug	C E3815B0004003580EE00
	?debug	C E3815C0000002D815B040175000E40696F734030+
	?debug	C 70776F7264247169
	?debug	C E3815E0000002D01040175001840696F73403073+
	?debug	C 796E635F776974685F737464696F247176
	?debug	C E381600000002D04040175000D40696F73403073+
	?debug	C 6B6970247169
	?debug	C E381620000002D7C040175000E40696F73403024+
	?debug	C 62637472247176
	?debug	C E381640000002D01040175001740696F73403069+
	?debug	C 6E697424716E3973747265616D627566
	?debug	C E381660000002D01040175001140696F73403073+
	?debug	C 65747374617465247169
	?debug	C E3816900000023010400
	?debug	C E3816800040016816900
	?debug	C E3816A000400160100
	?debug	C E3816B0000002D01040175001140696F73403075+
	?debug	C 73657273697A65247169
	?debug	C E3816D0000002D7C040175001240696F73403024+
	?debug	C 6263747224716D33696F73
	?debug	C E3816F0000002D01040575001240696F73403024+
	?debug	C 6261736724716D33696F73
	?debug	C E374076973747265616D32002E0A
	?debug	C ED000A020080F50E010B80
	?debug	C E38171000400167400
	?debug	C E381720000002D8171040174001C406973747265+
	?debug	C 616D4030246263747224716E3973747265616D62+
	?debug	C 7566
	?debug	C E381740000002D01040174001240697374726561+
	?debug	C 6D40302462647472247176
	?debug	C E381760000002D81710401740026406973747265+
	?debug	C 616D4030246263747224716E3973747265616D62+
	?debug	C 7566696E376F73747265616D
	?debug	C E381780000002D81710401740016406973747265+
	?debug	C 616D403024626374722471696E7A6369
	?debug	C E3817A0000002D8171040174001C406973747265+
	?debug	C 616D40302462637472247169696E376F73747265+
	?debug	C 616D
	?debug	C E3817C0000002D04040174001140697374726561+
	?debug	C 6D403069706678247169
	?debug	C E3817E0000002D0404097400
	?debug	C E381800000002D0404097400
	?debug	C E381820000002D0104097400
	?debug	C E38184000400357400
	?debug	C E381850000002D81840401740012406973747265+
	?debug	C 616D40307365656B6724716C
	?debug	C E381870000002D8184040174001B406973747265+
	?debug	C 616D40307365656B6724716C387365656B5F6469+
	?debug	C 72
	?debug	C E381890000002D06040174001240697374726561+
	?debug	C 6D403074656C6C67247176
	?debug	C E3818B0000002D0404097400
	?debug	C E3818D0000002D81840401740015406973747265+
	?debug	C 616D403067657424716E7A63697A63
	?debug	C E3818F0000002D818404097400
	?debug	C E381910000002D81840401740014406973747265+
	?debug	C 616D40307265616424716E7A6369
	?debug	C E381930000002D818404097400
	?debug	C E381950000002D81840401740019406973747265+
	?debug	C 616D40306765746C696E6524716E7A63697A63
	?debug	C E381970000002D818404097400
	?debug	C E381990000002D8184040174001C406973747265+
	?debug	C 616D403067657424716D3973747265616D627566+
	?debug	C 7A63
	?debug	C E3819B0000002D81840401740012406973747265+
	?debug	C 616D403067657424716D7563
	?debug	C E3819D0000002D81840401740012406973747265+
	?debug	C 616D403067657424716D7A63
	?debug	C E3819F0000002D04040174001040697374726561+
	?debug	C 6D4030676574247176
	?debug	C E381A10000002D0404097400
	?debug	C E381A30000002D0404097400
	?debug	C E381A50000002D81840401740015406973747265+
	?debug	C 616D40307075746261636B24717A63
	?debug	C E381A70000002D81840401740014406973747265+
	?debug	C 616D403069676E6F726524716969
	?debug	C E381A90000002D8184040D7400
	?debug	C E381AB0000002D8184040574001E406973747265+
	?debug	C 616D4030246272736824716E716D33696F73246D+
	?debug	C 33696F73
	?debug	C E381AD0000002D81840405740014406973747265+
	?debug	C 616D4030246272736824716E7A63
	?debug	C E381AF0000002D8184040D7400
	?debug	C E381B10000002D81840405740014406973747265+
	?debug	C 616D4030246272736824716D7563
	?debug	C E381B30000002D81840405740014406973747265+
	?debug	C 616D4030246272736824716D7A63
	?debug	C E381B50000002D81840405740013406973747265+
	?debug	C 616D4030246272736824716D73
	?debug	C E381B70000002D81840405740013406973747265+
	?debug	C 616D4030246272736824716D69
	?debug	C E381B90000002D81840405740013406973747265+
	?debug	C 616D4030246272736824716D6C
	?debug	C E381BB0000002D81840405740014406973747265+
	?debug	C 616D4030246272736824716D7573
	?debug	C E381BD0000002D81840405740014406973747265+
	?debug	C 616D4030246272736824716D7569
	?debug	C E381BF0000002D81840405740014406973747265+
	?debug	C 616D4030246272736824716D756C
	?debug	C E381C10000002D81840405740013406973747265+
	?debug	C 616D4030246272736824716D66
	?debug	C E381C30000002D81840405740013406973747265+
	?debug	C 616D4030246272736824716D64
	?debug	C E381C50000002D81840405740013406973747265+
	?debug	C 616D4030246272736824716D67
	?debug	C E381C70000002D8184040574001C406973747265+
	?debug	C 616D4030246272736824716E3973747265616D62+
	?debug	C 7566
	?debug	C E381C90000002D81710401740012406973747265+
	?debug	C 616D40302462637472247176
	?debug	C E381CB0000002D01040174001540697374726561+
	?debug	C 6D40306561747768697465247176
	?debug	C E381CD0000002D02040174001340697374726561+
	?debug	C 6D4030646F5F676574247176
	?debug	C E37308696F73747265616D38002E09
	?debug	C ED0009020081260E020A000C00
	?debug	C E381CF000400167300
	?debug	C E381D00000002D81CF040173001D40696F737472+
	?debug	C 65616D4030246263747224716E3973747265616D+
	?debug	C 627566
	?debug	C E381D20000002D01040173001340696F73747265+
	?debug	C 616D40302462647472247176
	?debug	C E381D40000002D81CF040173001340696F737472+
	?debug	C 65616D40302462637472247176
	?debug	C E37213696F73747265616D5F7769746861737369+
	?debug	C 676E38002E08
	?debug	C ED00080200812A0E010900
	?debug	C E381D6000400167200
	?debug	C E381D70000002D81D6040172001E40696F737472+
	?debug	C 65616D5F7769746861737369676E403024626374+
	?debug	C 72247176
	?debug	C E381D90000002D01040172001E40696F73747265+
	?debug	C 616D5F7769746861737369676E40302462647472+
	?debug	C 247176
	?debug	C E381DB000400357200
	?debug	C E381DC0000002D81DB040572002240696F737472+
	?debug	C 65616D5F7769746861737369676E403024626173+
	?debug	C 6724716D33696F73
	?debug	C E381DE0000002D81DB040572002840696F737472+
	?debug	C 65616D5F7769746861737369676E403024626173+
	?debug	C 6724716E3973747265616D627566
	?debug	C E381E0126F73747265616D5F7769746861737369+
	?debug	C 676E30002E0E
	?debug	C ED000E0200812F0E010C00
	?debug	C E381E10004001681E000
	?debug	C E381E20000002D81E1040181E0001D406F737472+
	?debug	C 65616D5F7769746861737369676E403024626374+
	?debug	C 72247176
	?debug	C E381E40000002D01040181E0001D406F73747265+
	?debug	C 616D5F7769746861737369676E40302462647472+
	?debug	C 247176
	?debug	C E381E60004003581E000
	?debug	C E381E70000002D81E6040581E00025406F737472+
	?debug	C 65616D5F7769746861737369676E403024626173+
	?debug	C 6724716D376F73747265616D
	?debug	C E381E90000002D81E6040581E00027406F737472+
	?debug	C 65616D5F7769746861737369676E403024626173+
	?debug	C 6724716E3973747265616D627566
	?debug	C E381EB126973747265616D5F7769746861737369+
	?debug	C 676E32002E0F
	?debug	C ED000F020081340E010A00
	?debug	C E381EC0004001681EB00
	?debug	C E381ED0000002D81EC040181EB001D4069737472+
	?debug	C 65616D5F7769746861737369676E403024626374+
	?debug	C 72247176
	?debug	C E381EF0000002D01040181EB001D406973747265+
	?debug	C 616D5F7769746861737369676E40302462647472+
	?debug	C 247176
	?debug	C E381F10004003581EB00
	?debug	C E381F20000002D81F1040581EB00254069737472+
	?debug	C 65616D5F7769746861737369676E403024626173+
	?debug	C 6724716D376973747265616D
	?debug	C E381F40000002D81F1040581EB00274069737472+
	?debug	C 65616D5F7769746861737369676E403024626173+
	?debug	C 6724716E3973747265616D627566
	?debug	C E381F600000023010400
	?debug	C EB085F7365747665637481F600
	?debug	C E381F900000023010701
	?debug	C E381F80004001681F900
	?debug	C E381F70000002381F80400
	?debug	C EB085F6765747665637481F700
	?debug	C E381FA00000023010400
	?debug	C E381FB00000023010400
	?debug	C E381FC00000023020400
	?debug	C E381FD00000023040400
	?debug	C E381FE0666696E645F742B001E8139
	?debug	C E381FF0015001A02
	?debug	C E38200000D001A02
	?debug	C E38201056666626C6B2B001E8140
	?debug	C E382020015001A02
	?debug	C E38203000D001A02
	?debug	C E38204075245475041434B14001E8147
	?debug	C E3820505535245475308001E8152
	?debug	C E38206045245475310001F8157
	?debug	C E3820708574F52445245475310001E815A
	?debug	C E3820808425954455245475308001E8163
	?debug	C E3820909646F73646174655F7405001E816C
	?debug	C E3820A046461746504001E8171
	?debug	C E3820B09646F7374696D655F7404001E8175
	?debug	C E3820C0474696D6504001E817A
	?debug	C E3820D0664657668647212001E817F
	?debug	C E3820E0008001A02
	?debug	C E3820F07666174696E666F06001E8185
	?debug	C E382100A6469736B667265655F7408001E818A
	?debug	C E3821105646672656508001E818F
	?debug	C E3821208444F534552524F5205001E8194
	?debug	C E3821307434F554E54525922001E8199
	?debug	C E382140005001A02
	?debug	C E382150002001A02
	?debug	C E382160002001A02
	?debug	C E382170002001A02
	?debug	C E382180002001A02
	?debug	C E382190002001A02
	?debug	C E3821A000A001A02
	?debug	C E3821B04786663622C001E81A6
	?debug	C E3821C0005001A02
	?debug	C E3821D0366636225001E81AB
	?debug	C E3821E0008001A02
	?debug	C E3821F0003001A02
	?debug	C E38220000A001A02
	?debug	C E38221064B45524E454C01002E10
	?debug	C ED0010000081B60E00
	?debug	C E3822214404B45524E454C403053746174696342+
	?debug	C 6C6F636B01002E11
	?debug	C ED0011000081BC0F00
	?debug	C E3822300040016822200
	?debug	C E382240000002D822304018222001D404B45524E+
	?debug	C 454C40537461746963426C6F636B403024626374+
	?debug	C 72247176
	?debug	C E3822600000023010400
	?debug	C EB0B40246264656C6524716E76822600
	?debug	C E382270000002380EE0400
	?debug	C EB0A4024626E657724717569822700
	?debug	C E6016704000002000000
	?debug	C EC114054696D6572403074696D6572247176654C+
	?debug	C 9800
	?debug	C EC114054696D6572403074696D6572247176654C+
	?debug	C 98000666706F735F740606000249440406000454+
	?debug	C 696D650A060009537461636B53697A650C060014+
	?debug	C 52696F73747265616D5F7769746861737369676E+
	?debug	C 81DB06001450696F73747265616D5F7769746861+
	?debug	C 737369676E81D6060013526F73747265616D5F77+
	?debug	C 69746861737369676E81E6060013506F73747265+
	?debug	C 616D5F7769746861737369676E81E10600135269+
	?debug	C 73747265616D5F7769746861737369676E81F106+
	?debug	C 0013506973747265616D5F776974686173736967+
	?debug	C 6E81EC06000950696F73747265616D81CF060008+
	?debug	C 526F73747265616D80A5060008506F7374726561+
	?debug	C 6D8097060008526973747265616D818406000850+
	?debug	C 6973747265616D817106000A5073747265616D62+
	?debug	C 756680F306000450696F737C0600097374726561+
	?debug	C 6D6F66660606000973747265616D706F73060600+
	?debug	C 0673697A655F740A060009707472646966665F74+
	?debug	C 0606000757616974696E67010700057175657565+
	?debug	C 0107000A6D61696E546872656164010700095363+
	?debug	C 686564756C65725307000C536C656570696E674C+
	?debug	C 6973745807000449646C65680700065468726561+
	?debug	C 64210700035043421B07000E696F735F75736572+
	?debug	C 5F756E696F6E01070013696F73747265616D5F77+
	?debug	C 69746861737369676E720700126F73747265616D+
	?debug	C 5F7769746861737369676E81E007001269737472+
	?debug	C 65616D5F7769746861737369676E81EB07000869+
	?debug	C 6F73747265616D730700076F73747265616D8098+
	?debug	C 0700076973747265616D7407000973747265616D+
	?debug	C 62756680F4070003696F737507000666696E645F+
	?debug	C 7481FE0700056666626C6B820107000752454750+
	?debug	C 41434B8204070005535245475382050700045245+
	?debug	C 4753820607000842595445524547538208070008+
	?debug	C 574F5244524547538207070009646F7364617465+
	?debug	C 5F74820907000464617465820A070009646F7374+
	?debug	C 696D655F74820B07000474696D65820C07000664+
	?debug	C 6576686472820D070007666174696E666F820F07+
	?debug	C 000A6469736B667265655F748210070005646672+
	?debug	C 65658211070008444F534552524F528212070007+
	?debug	C 434F554E545259821307000478666362821B0700+
	?debug	C 03666362821D07000554696D6572190700064B45+
	?debug	C 524E454C82210700
	?debug	F pokeb 506 24 0
	?debug	F poke 507 24 0
	?debug	F peekb 508 24 0
	?debug	F peek 509 24 0
	?debug	C E24A18405043424030246263747224716E365468+
	?debug	C 72656164756C691C4D0E40504342403024626474+
	?debug	C 722471761E400400000000086D79546872656164+
	?debug	C 20700553746174652E4816405043424030736574+
	?debug	C 5374617465247135537461746530481140504342+
	?debug	C 4030676574537461746524717632481040504342+
	?debug	C 403067657454696D6524717634480E4050434240+
	?debug	C 3073746172742471763648174050434240307761+
	?debug	C 6974546F436F6D706C65746524717638000C7374+
	?debug	C 61636B5365676D656E740A000B737461636B4F66+
	?debug	C 667365740A000B62617365506F696E7465720A00+
	?debug	C 0C7772617065724F66667365740A000D77726170+
	?debug	C 65725365676D656E740A000B74696D65546F536C+
	?debug	C 6565700A000B77616974696E674C6973743A480F+
	?debug	C 405043424030736C656570247175693B480C4050+
	?debug	C 4342403072756E2471763D481440504342403072+
	?debug	C 756E5F777261707065722471763F000249440460+
	?debug	C 0D4050434240304E4558545F4944040005737461+
	?debug	C 636B4100066D7954696D65040009737461636B53+
	?debug	C 697A650C000573746174652E4815405043424030+
	?debug	C 637265617465537461636B2471756942C0260000+
	?debug	C 00
	?debug	C E248114054687265616440307374617274247176+
	?debug	C 22481A40546872656164403077616974546F436F+
	?debug	C 6D706C657465247176244D114054687265616440+
	?debug	C 3024626474722471762648124054687265616440+
	?debug	C 30736C65657024717569284A1440546872656164+
	?debug	C 403024626374722471756C75692A4C0F40546872+
	?debug	C 656164403072756E2471762C400400000000056D+
	?debug	C 795043421AC008000000
	?debug	C E400094050434240304E45570000000C40504342+
	?debug	C 40304143544956450100000D4050434240305255+
	?debug	C 4E4E494E470200000D405043424030424C4F434B+
	?debug	C 45440300800F405043424030434F4D504C455445+
	?debug	C 440400
	?debug	C E24A104054696D65724030246263747224717644+
	?debug	C 48134054696D6572403073657456616C75652471+
	?debug	C 694648124054696D657240307475726E4F464624+
	?debug	C 7176484D104054696D6572403024626474722471+
	?debug	C 764A48114054696D6572403074696D6572247176+
	?debug	C 654C600C4054696D657240306578706C04600B40+
	?debug	C 54696D657240306F6C644E600F4054696D657240+
	?debug	C 307469636B696E6704601B4054696D6572403074+
	?debug	C 696D65556E74696C54687265616453746F7004C0+
	?debug	C 04000000
	?debug	C E24816405363686564756C657240307075742471+
	?debug	C 6E33504342544812405363686564756C65724030+
	?debug	C 67657424717656C001000000
	?debug	C E2481A40536C656570696E674C69737440306465+
	?debug	C 63726561736524717659481A40536C656570696E+
	?debug	C 674C69737440307075736824716E335043425B4A+
	?debug	C 1740536C656570696E674C697374403024626374+
	?debug	C 722471765E4D1740536C656570696E674C697374+
	?debug	C 40302462647472247176607004456C656D624004+
	?debug	C 00000000046865616463C008000000
	?debug	C E200037063621A00046E657874634A2040536C65+
	?debug	C 6570696E674C69737440456C656D403024626374+
	?debug	C 7224716E33504342644A1C40536C656570696E67+
	?debug	C 4C69737440456C656D4030246263747224717666+
	?debug	C C008000000
	?debug	C E24A0F4049646C65403024626374722471766A4C+
	?debug	C 0D4049646C65403072756E2471766C480F404964+
	?debug	C 6C65403073746172742471766E48104049646C65+
	?debug	C 403067657450434224717670C008000000
	?debug	C E27008696F5F73746174657670096F70656E5F6D+
	?debug	C 6F64657870087365656B5F6469727A600F40696F+
	?debug	C 734030626173656669656C6406601140696F7340+
	?debug	C 3061646A7573746669656C6406601040696F7340+
	?debug	C 30666C6F61746669656C64064A1840696F734030+
	?debug	C 246263747224716E3973747265616D6275667D4D+
	?debug	C 0E40696F73403024626474722471767F480E4069+
	?debug	C 6F734030666C6167732471768081480E40696F73+
	?debug	C 4030666C61677324716C8083480E40696F734030+
	?debug	C 7365746624716C6C8085480D40696F7340307365+
	?debug	C 746624716C8087480F40696F734030756E736574+
	?debug	C 6624716C8089480E40696F734030776964746824+
	?debug	C 7176808B480E40696F7340307769647468247169+
	?debug	C 808D480D40696F73403066696C6C247176808F48+
	?debug	C 0E40696F73403066696C6C24717A638091481240+
	?debug	C 696F734030707265636973696F6E247169809348+
	?debug	C 1240696F734030707265636973696F6E24717680+
	?debug	C 95481440696F73403074696524716E376F737472+
	?debug	C 65616D80DE480C40696F73403074696524717680+
	?debug	C E0481040696F7340307264737461746524717680+
	?debug	C E2480C40696F734030656F6624717680E4480D40+
	?debug	C 696F7340306661696C24717680E6480C40696F73+
	?debug	C 403062616424717680E8480D40696F734030676F+
	?debug	C 6F6424717680EA480E40696F734030636C656172+
	?debug	C 24716980EC4B0D40696F734030246F6E76247176+
	?debug	C 80EF480E40696F73403024626E6F7424717680F1+
	?debug	C 480E40696F734030726462756624717681524811+
	?debug	C 40696F734030626974616C6C6F63247176815448+
	?debug	C 0F40696F73403078616C6C6F632471768156480E+
	?debug	C 40696F73403069776F72642471698159480E4069+
	?debug	C 6F73403070776F7264247169815C481840696F73+
	?debug	C 403073796E635F776974685F737464696F247176+
	?debug	C 815E480D40696F734030736B6970247169816040+
	?debug	C 040000000002627080F30005785F746965809700+
	?debug	C 057374617465040008697370656369616C040008+
	?debug	C 6F7370656369616C040007785F666C6167730600+
	?debug	C 0B785F707265636973696F6E040007785F776964+
	?debug	C 7468040006785F66696C6C04000C697366785F73+
	?debug	C 70656369616C04000C6F7366785F737065636961+
	?debug	C 6C04000664656C62756604000E61737369676E5F+
	?debug	C 70726976617465044A0E40696F73403024626374+
	?debug	C 722471768162481740696F734030696E69742471+
	?debug	C 6E3973747265616D6275668164481140696F7340+
	?debug	C 3073657473746174652471698166601040696F73+
	?debug	C 4030737464696F666C7573688168600D40696F73+
	?debug	C 40306E65787462697406600F40696F7340307573+
	?debug	C 6572636F756E7404000975736572776F72647381+
	?debug	C 6A00066E776F72647304481140696F7340307573+
	?debug	C 657273697A65247169816B4A1240696F73403024+
	?debug	C 6263747224716D33696F73816D481240696F7340+
	?debug	C 30246261736724716D33696F73816FC02A000000
	?debug	C E4000D40696F734030676F6F646269740000000C+
	?debug	C 40696F734030656F666269740100000D40696F73+
	?debug	C 40306661696C6269740200000C40696F73403062+
	?debug	C 61646269740400800E40696F7340306861726466+
	?debug	C 61696C8000
	?debug	C E4000840696F734030696E0100000940696F7340+
	?debug	C 306F75740200000940696F734030617465040000+
	?debug	C 0940696F7340306170700800000B40696F734030+
	?debug	C 7472756E631000000E40696F7340306E6F637265+
	?debug	C 6174652000000F40696F7340306E6F7265706C61+
	?debug	C 63654000800C40696F73403062696E6172798000
	?debug	C E4000940696F7340306265670000000940696F73+
	?debug	C 40306375720100800940696F734030656E640200
	?debug	C E24A1C406F73747265616D403024626374722471+
	?debug	C 6E3973747265616D62756680994D12406F737472+
	?debug	C 65616D40302462647472247176809B4A12406F73+
	?debug	C 747265616D40302462637472247169809D4A1540+
	?debug	C 6F73747265616D403024626374722471696E7A63+
	?debug	C 809F4811406F73747265616D40306F7066782471+
	?debug	C 7680A14811406F73747265616D40306F73667824+
	?debug	C 717680A34812406F73747265616D4030666C7573+
	?debug	C 6824717680A64812406F73747265616D40307365+
	?debug	C 656B7024716C80A8481B406F73747265616D4030+
	?debug	C 7365656B7024716C387365656B5F64697280AA48+
	?debug	C 12406F73747265616D403074656C6C7024717680+
	?debug	C AC4811406F73747265616D403070757424717A63+
	?debug	C 80AE4816406F73747265616D4030777269746524+
	?debug	C 716E787A636980B04816406F73747265616D4030+
	?debug	C 777269746524716E7875636980B24813406F7374+
	?debug	C 7265616D403024626C736824717A6380B4481340+
	?debug	C 6F73747265616D403024626C73682471756380B6+
	?debug	C 4812406F73747265616D403024626C7368247173+
	?debug	C 80B84813406F73747265616D403024626C736824+
	?debug	C 71757380BA4812406F73747265616D403024626C+
	?debug	C 736824716980BC4813406F73747265616D403024+
	?debug	C 626C73682471756980BE4812406F73747265616D+
	?debug	C 403024626C736824716C80C04813406F73747265+
	?debug	C 616D403024626C73682471756C80C24812406F73+
	?debug	C 747265616D403024626C736824716680C4481240+
	?debug	C 6F73747265616D403024626C736824716480C648+
	?debug	C 12406F73747265616D403024626C736824716780+
	?debug	C C84815406F73747265616D403024626C73682471+
	?debug	C 6E787A6380CA4815406F73747265616D40302462+
	?debug	C 6C736824716E78756380CC4813406F7374726561+
	?debug	C 6D403024626C736824716E7680CE481C406F7374+
	?debug	C 7265616D403024626C736824716E397374726561+
	?debug	C 6D62756680D04826406F73747265616D40302462+
	?debug	C 6C736824716E716D376F73747265616D246D376F+
	?debug	C 73747265616D80D2481E406F73747265616D4030+
	?debug	C 24626C736824716E716D33696F73246D33696F73+
	?debug	C 80D44814406F73747265616D4030646F5F6F7066+
	?debug	C 7824717680D64814406F73747265616D4030646F+
	?debug	C 5F6F73667824717680D84A12406F73747265616D+
	?debug	C 4030246263747224717680DA4818406F73747265+
	?debug	C 616D40306F757473747224716E787A63743180DC+
	?debug	C C030000000
	?debug	C E24A144073747265616D62756640302462637472+
	?debug	C 24717680F54A174073747265616D627566403024+
	?debug	C 6263747224716E7A636980F74D14407374726561+
	?debug	C 6D6275664030246264747224717680F94C184073+
	?debug	C 747265616D627566403073657462756624716E7A+
	?debug	C 636980FB48184073747265616D62756640307365+
	?debug	C 7462756624716E75636980FD4819407374726561+
	?debug	C 6D627566403073657462756624716E7A63696980+
	?debug	C FF48144073747265616D62756640307367657463+
	?debug	C 247176810148154073747265616D627566403073+
	?debug	C 6E65787463247176810348154073747265616D62+
	?debug	C 756640307362756D706324717681054815407374+
	?debug	C 7265616D627566403073746F7373632471768107+
	?debug	C 48174073747265616D6275664030736765746E24+
	?debug	C 716E7A636981094C1A4073747265616D62756640+
	?debug	C 30646F5F736765746E24716E7A6369810B4C1840+
	?debug	C 73747265616D6275664030756E646572666C6F77+
	?debug	C 247176810D48194073747265616D627566403073+
	?debug	C 7075746261636B6324717A63810F4C1840737472+
	?debug	C 65616D6275664030706261636B6661696C247169+
	?debug	C 811148174073747265616D6275664030696E5F61+
	?debug	C 7661696C247176811348144073747265616D6275+
	?debug	C 6640307370757463247169811548184073747265+
	?debug	C 616D6275664030737075746E24716E787A636981+
	?debug	C 174C1B4073747265616D6275664030646F5F7370+
	?debug	C 75746E24716E787A636981194C17407374726561+
	?debug	C 6D62756640306F766572666C6F77247169811B48+
	?debug	C 1A4073747265616D62756640306F75745F776169+
	?debug	C 74696E67247176811D4C204073747265616D6275+
	?debug	C 6640307365656B6F666624716C387365656B5F64+
	?debug	C 697269811F4C174073747265616D627566403073+
	?debug	C 65656B706F7324716C6981214C13407374726561+
	?debug	C 6D627566403073796E6324717681234812407374+
	?debug	C 7265616D62756640306462702471768125481340+
	?debug	C 73747265616D6275664030626173652471768128+
	?debug	C 48134073747265616D6275664030656275662471+
	?debug	C 76812A48134073747265616D6275664030626C65+
	?debug	C 6E247176812C48144073747265616D6275664030+
	?debug	C 7062617365247176812E48134073747265616D62+
	?debug	C 7566403070707472247176813048144073747265+
	?debug	C 616D627566403065707074722471768132481440+
	?debug	C 73747265616D6275664030656261636B24717681+
	?debug	C 3448134073747265616D62756640306770747224+
	?debug	C 7176813648144073747265616D62756640306567+
	?debug	C 707472247176813848174073747265616D627566+
	?debug	C 40307365747024716E7A637431813A4819407374+
	?debug	C 7265616D62756640307365746724716E7A637431+
	?debug	C 7431813C48144073747265616D62756640307062+
	?debug	C 756D70247169813E48144073747265616D627566+
	?debug	C 40306762756D7024716981404818407374726561+
	?debug	C 6D62756640307365746224716E7A637431698142+
	?debug	C 48194073747265616D6275664030756E62756666+
	?debug	C 65726564247169814448194073747265616D6275+
	?debug	C 664030756E627566666572656424717681464817+
	?debug	C 4073747265616D6275664030616C6C6F63617465+
	?debug	C 24717681484C194073747265616D627566403064+
	?debug	C 6F616C6C6F63617465247176814A400400000000+
	?debug	C 06616C6C6F635F040006756E6275665F04000562+
	?debug	C 6173655F81270005656275665F81270006706261+
	?debug	C 73655F81270005707074725F8127000665707074+
	?debug	C 725F81270006656261636B5F8127000567707472+
	?debug	C 5F8127000665677074725F812748184073747265+
	?debug	C 616D6275664030646F5F736E6578746324717681+
	?debug	C 4C4A1E4073747265616D62756640302462637472+
	?debug	C 24716D3973747265616D627566814E481E407374+
	?debug	C 7265616D6275664030246261736724716D397374+
	?debug	C 7265616D6275668150C028000000
	?debug	C E24A1C406973747265616D403024626374722471+
	?debug	C 6E3973747265616D62756681724D124069737472+
	?debug	C 65616D4030246264747224717681744A26406973+
	?debug	C 747265616D4030246263747224716E3973747265+
	?debug	C 616D627566696E376F73747265616D81764A1640+
	?debug	C 6973747265616D403024626374722471696E7A63+
	?debug	C 6981784A1C406973747265616D40302462637472+
	?debug	C 247169696E376F73747265616D817A4811406973+
	?debug	C 747265616D403069706678247169817C48124069+
	?debug	C 73747265616D40306970667830247176817E4812+
	?debug	C 406973747265616D403069706678312471768180+
	?debug	C 4811406973747265616D40306973667824717681+
	?debug	C 824812406973747265616D40307365656B672471+
	?debug	C 6C8185481B406973747265616D40307365656B67+
	?debug	C 24716C387365656B5F6469728187481240697374+
	?debug	C 7265616D403074656C6C67247176818948114069+
	?debug	C 73747265616D403073796E63247176818B481540+
	?debug	C 6973747265616D403067657424716E7A63697A63+
	?debug	C 818D4815406973747265616D403067657424716E+
	?debug	C 7563697A63818F4814406973747265616D403072+
	?debug	C 65616424716E7A63698191481440697374726561+
	?debug	C 6D40307265616424716E75636981934819406973+
	?debug	C 747265616D40306765746C696E6524716E7A6369+
	?debug	C 7A6381954819406973747265616D40306765746C+
	?debug	C 696E6524716E7563697A638197481C4069737472+
	?debug	C 65616D403067657424716D3973747265616D6275+
	?debug	C 667A6381994812406973747265616D4030676574+
	?debug	C 24716D7563819B4812406973747265616D403067+
	?debug	C 657424716D7A63819D4810406973747265616D40+
	?debug	C 30676574247176819F4811406973747265616D40+
	?debug	C 307065656B24717681A14813406973747265616D+
	?debug	C 403067636F756E7424717681A348154069737472+
	?debug	C 65616D40307075746261636B24717A6381A54814+
	?debug	C 406973747265616D403069676E6F726524716969+
	?debug	C 81A74826406973747265616D4030246272736824+
	?debug	C 716E716D376973747265616D246D376973747265+
	?debug	C 616D81A9481E406973747265616D403024627273+
	?debug	C 6824716E716D33696F73246D33696F7381AB4814+
	?debug	C 406973747265616D4030246272736824716E7A63+
	?debug	C 81AD4814406973747265616D4030246272736824+
	?debug	C 716E756381AF4814406973747265616D40302462+
	?debug	C 72736824716D756381B14814406973747265616D+
	?debug	C 4030246272736824716D7A6381B3481340697374+
	?debug	C 7265616D4030246272736824716D7381B5481340+
	?debug	C 6973747265616D4030246272736824716D6981B7+
	?debug	C 4813406973747265616D4030246272736824716D+
	?debug	C 6C81B94814406973747265616D40302462727368+
	?debug	C 24716D757381BB4814406973747265616D403024+
	?debug	C 6272736824716D756981BD481440697374726561+
	?debug	C 6D4030246272736824716D756C81BF4813406973+
	?debug	C 747265616D4030246272736824716D6681C14813+
	?debug	C 406973747265616D4030246272736824716D6481+
	?debug	C C34813406973747265616D403024627273682471+
	?debug	C 6D6781C5481C406973747265616D403024627273+
	?debug	C 6824716E3973747265616D62756681C74A124069+
	?debug	C 73747265616D4030246263747224717681C94815+
	?debug	C 406973747265616D403065617477686974652471+
	?debug	C 7681CB4006000000000767636F756E745F044813+
	?debug	C 406973747265616D4030646F5F67657424717681+
	?debug	C CDC032000000
	?debug	C E24A1D40696F73747265616D4030246263747224+
	?debug	C 716E3973747265616D62756681D04D1340696F73+
	?debug	C 747265616D4030246264747224717681D24A1340+
	?debug	C 696F73747265616D4030246263747224717681D4+
	?debug	C C038000000
	?debug	C E24A1E40696F73747265616D5F77697468617373+
	?debug	C 69676E4030246263747224717681D74D1E40696F+
	?debug	C 73747265616D5F7769746861737369676E403024+
	?debug	C 6264747224717681D9482240696F73747265616D+
	?debug	C 5F7769746861737369676E403024626173672471+
	?debug	C 6D33696F7381DC482840696F73747265616D5F77+
	?debug	C 69746861737369676E4030246261736724716E39+
	?debug	C 73747265616D62756681DEC038000000
	?debug	C E24A1D406F73747265616D5F7769746861737369+
	?debug	C 676E4030246263747224717681E24D1D406F7374+
	?debug	C 7265616D5F7769746861737369676E4030246264+
	?debug	C 747224717681E44825406F73747265616D5F7769+
	?debug	C 746861737369676E4030246261736724716D376F+
	?debug	C 73747265616D81E74827406F73747265616D5F77+
	?debug	C 69746861737369676E4030246261736724716E39+
	?debug	C 73747265616D62756681E9C030000000
	?debug	C E24A1D406973747265616D5F7769746861737369+
	?debug	C 676E4030246263747224717681ED4D1D40697374+
	?debug	C 7265616D5F7769746861737369676E4030246264+
	?debug	C 747224717681EF4825406973747265616D5F7769+
	?debug	C 746861737369676E4030246261736724716D3769+
	?debug	C 73747265616D81F24827406973747265616D5F77+
	?debug	C 69746861737369676E4030246261736724716E39+
	?debug	C 73747265616D62756681F4C032000000
	?debug	C E20008726573657276656481FF00066174747269+
	?debug	C 6202000777725F74696D650A000777725F646174+
	?debug	C 650A000473697A650600046E616D658200C02B00+
	?debug	C 0000
	?debug	C E2000B66665F7265736572766564820200096666+
	?debug	C 5F61747472696202000866665F6674696D650A00+
	?debug	C 0866665F66646174650A000866665F6673697A65+
	?debug	C 06000766665F6E616D658203C02B000000
	?debug	C E20004725F61780A0004725F62780A0004725F63+
	?debug	C 780A0004725F64780A0004725F62700A0004725F+
	?debug	C 73690A0004725F64690A0004725F64730A000472+
	?debug	C 5F65730A0007725F666C6167730AC014000000
	?debug	C E2000265730A000263730A000273730A00026473+
	?debug	C 0AC008000000
	?debug	C E200017882070001688208C010000000
	?debug	C E2000261780A000262780A000263780A00026478+
	?debug	C 0A000273690A000264690A000563666C61670A00+
	?debug	C 05666C6167730AC010000000
	?debug	C E20002616C0800026168080002626C0800026268+
	?debug	C 080002636C0800026368080002646C0800026468+
	?debug	C 08C008000000
	?debug	C E200036461790800056D6F6E7468080004796561+
	?debug	C 720A00096461796F667765656B08C005000000
	?debug	C E2000764615F7965617204000664615F64617902+
	?debug	C 000664615F6D6F6E02C004000000
	?debug	C E20004686F75720800066D696E75746508000673+
	?debug	C 65636F6E64080007687365636F6E6408C0040000+
	?debug	C 00
	?debug	C E2000674695F6D696E08000774695F686F757208+
	?debug	C 000774695F68756E6408000674695F73656308C0+
	?debug	C 04000000
	?debug	C E2000764685F6E65787406000764685F61747472+
	?debug	C 04000864685F73747261740A000864685F696E74+
	?debug	C 65720A000764685F6E616D65820EC012000000
	?debug	C E2000866695F73636C757302000866695F666174+
	?debug	C 696402000866695F6E636C75730A000866695F62+
	?debug	C 7973656304C006000000
	?debug	C E2000E746F74616C5F636C7573746572730A000E+
	?debug	C 617661696C5F636C7573746572730A0013736563+
	?debug	C 746F72735F7065725F636C75737465720A001062+
	?debug	C 797465735F7065725F736563746F720AC0080000+
	?debug	C 00
	?debug	C E2000864665F617661696C0A000864665F746F74+
	?debug	C 616C0A000764665F627365630A000864665F7363+
	?debug	C 6C75730AC008000000
	?debug	C E2000B64655F6578746572726F7204000864655F+
	?debug	C 636C61737302000964655F616374696F6E020008+
	?debug	C 64655F6C6F63757302C005000000
	?debug	C E20007636F5F64617465040007636F5F63757272+
	?debug	C 82140008636F5F746873657082150008636F5F64+
	?debug	C 6573657082160008636F5F647473657082170008+
	?debug	C 636F5F746D7365708218000C636F5F6375727273+
	?debug	C 74796C65020009636F5F64696769747302000763+
	?debug	C 6F5F74696D65020007636F5F6361736506000863+
	?debug	C 6F5F646173657082190007636F5F66696C6C821A+
	?debug	C C022000000
	?debug	C E20009786663625F666C6167020009786663625F+
	?debug	C 72657376821C0009786663625F61747472020008+
	?debug	C 786663625F666362821DC02C000000
	?debug	C E200096663625F64726976650200086663625F6E+
	?debug	C 616D65821E00076663625F657874821F000A6663+
	?debug	C 625F637572626C6B04000B6663625F7265637369+
	?debug	C 7A6504000B6663625F66696C73697A6506000866+
	?debug	C 63625F646174650400086663625F726573768220+
	?debug	C 000A6663625F63757272656302000A6663625F72+
	?debug	C 616E646F6D06C025000000
	?debug	C E26010404B45524E454C403072756E6E696E671A+
	?debug	C 6011404B45524E454C4030736C656570696E675D+
	?debug	C 600D404B45524E454C403069646C6569600E404B+
	?debug	C 45524E454C403074696D657218700B5374617469+
	?debug	C 63426C6F636B8222C001000000
	?debug	C E24A1D404B45524E454C40537461746963426C6F+
	?debug	C 636B403024626374722471768224C001000000
	end
